(lp0
(S'cppflags'
p1
ccopy_reg
_reconstructor
p2
(cino.utils
SpaceList
p3
c__builtin__
list
p4
(lp5
S'-mmcu=atmega328p'
p6
aS'-DF_CPU=16000000L'
p7
aS'-DARDUINO=101'
p8
aS'-I/usr/share/arduino/hardware/arduino/cores/arduino'
p9
aS'-ffunction-sections'
p10
aS'-fdata-sections'
p11
aS'-g'
p12
aS'-Os'
p13
aS'-w'
p14
aS'-I/usr/share/arduino/hardware/arduino/variants/standard'
p15
aS'-Ilib/LiquidCrystal595'
p16
aS'-I/usr/share/arduino/libraries/Wire'
p17
aS'-I/usr/share/arduino/libraries/Wire/utility'
p18
aS'-I/usr/share/arduino/hardware/arduino/cores/arduino'
p19
atp20
Rp21
tp22
a(S'cxx'
p23
S'/usr/bin/avr-g++'
p24
tp25
a(S'arduino_libraries_dir'
p26
S'/usr/share/arduino/libraries'
p27
tp28
a(S'avrdude'
p29
S'/usr/share/arduino/hardware/tools/avrdude'
p30
tp31
a(S'ar'
p32
S'/usr/bin/avr-ar'
p33
tp34
a(S'names'
p35
(dp36
S'cpp'
p37
S'%s.cpp'
p38
sS'obj'
p39
S'%s.o'
p40
sS'deps'
p41
S'%s.d'
p42
sS'lib'
p43
S'lib%s.a'
p44
stp45
a(S'ldflags'
p46
g2
(g3
g4
(lp47
g6
aS'-Wl,-Os'
p48
aS'-Wl,--gc-sections'
p49
atp50
Rp51
tp52
a(S'arduino_lib_version'
p53
g2
(cino.environment
Version
p54
c__builtin__
tuple
p55
(I1
I0
I1
tp56
tp57
Rp58
tp59
a(S'objcopy'
p60
S'/usr/bin/avr-objcopy'
p61
tp62
a(S'board_models'
p63
cino.environment
BoardModels
p64
((lp65
(lp66
S'uno'
p67
a(dp68
S'bootloader'
p69
(dp70
S'extended_fuses'
p71
S'0x05'
p72
sS'high_fuses'
p73
S'0xde'
p74
sS'low_fuses'
p75
S'0xff'
p76
sS'lock_bits'
p77
S'0x0F'
p78
sS'file'
p79
S'optiboot_atmega328.hex'
p80
sS'path'
p81
S'optiboot'
p82
sS'unlock_bits'
p83
S'0x3F'
p84
ssS'build'
p85
(dp86
S'core'
p87
S'arduino'
p88
sS'mcu'
p89
S'atmega328p'
p90
sS'f_cpu'
p91
S'16000000L'
p92
sS'variant'
p93
S'standard'
p94
ssS'name'
p95
S'Arduino Uno'
p96
sS'upload'
p97
(dp98
S'speed'
p99
S'115200'
p100
sS'maximum_size'
p101
S'32256'
p102
sS'protocol'
p103
S'arduino'
p104
ssaa(lp105
S'atmega328'
p106
a(dp107
S'bootloader'
p108
(dp109
S'extended_fuses'
p110
S'0x05'
p111
sS'high_fuses'
p112
S'0xDA'
p113
sS'low_fuses'
p114
S'0xFF'
p115
sS'lock_bits'
p116
S'0x0F'
p117
sS'file'
p118
S'ATmegaBOOT_168_atmega328.hex'
p119
sS'path'
p120
S'atmega'
p121
sS'unlock_bits'
p122
S'0x3F'
p123
ssS'build'
p124
(dp125
S'core'
p126
S'arduino'
p127
sS'mcu'
p128
S'atmega328p'
p129
sS'f_cpu'
p130
S'16000000L'
p131
sS'variant'
p132
S'standard'
p133
ssS'name'
p134
S'Arduino Duemilanove w/ ATmega328'
p135
sS'upload'
p136
(dp137
S'speed'
p138
S'57600'
p139
sS'maximum_size'
p140
S'30720'
p141
sS'protocol'
p142
S'arduino'
p143
ssaa(lp144
S'diecimila'
p145
a(dp146
S'bootloader'
p147
(dp148
S'extended_fuses'
p149
S'0x00'
p150
sS'high_fuses'
p151
S'0xdd'
p152
sS'low_fuses'
p153
S'0xff'
p154
sS'lock_bits'
p155
S'0x0F'
p156
sS'file'
p157
S'ATmegaBOOT_168_diecimila.hex'
p158
sS'path'
p159
S'atmega'
p160
sS'unlock_bits'
p161
S'0x3F'
p162
ssS'build'
p163
(dp164
S'core'
p165
S'arduino'
p166
sS'mcu'
p167
S'atmega168'
p168
sS'f_cpu'
p169
S'16000000L'
p170
sS'variant'
p171
S'standard'
p172
ssS'name'
p173
S'Arduino Diecimila or Duemilanove w/ ATmega168'
p174
sS'upload'
p175
(dp176
S'speed'
p177
S'19200'
p178
sS'maximum_size'
p179
S'14336'
p180
sS'protocol'
p181
S'arduino'
p182
ssaa(lp183
S'nano328'
p184
a(dp185
S'bootloader'
p186
(dp187
S'extended_fuses'
p188
S'0x05'
p189
sS'high_fuses'
p190
S'0xDA'
p191
sS'low_fuses'
p192
S'0xFF'
p193
sS'lock_bits'
p194
S'0x0F'
p195
sS'file'
p196
S'ATmegaBOOT_168_atmega328.hex'
p197
sS'path'
p198
S'atmega'
p199
sS'unlock_bits'
p200
S'0x3F'
p201
ssS'build'
p202
(dp203
S'core'
p204
S'arduino'
p205
sS'mcu'
p206
S'atmega328p'
p207
sS'f_cpu'
p208
S'16000000L'
p209
sS'variant'
p210
S'eightanaloginputs'
p211
ssS'name'
p212
S'Arduino Nano w/ ATmega328'
p213
sS'upload'
p214
(dp215
S'speed'
p216
S'57600'
p217
sS'maximum_size'
p218
S'30720'
p219
sS'protocol'
p220
S'arduino'
p221
ssaa(lp222
S'nano'
p223
a(dp224
S'bootloader'
p225
(dp226
S'extended_fuses'
p227
S'0x00'
p228
sS'high_fuses'
p229
S'0xdd'
p230
sS'low_fuses'
p231
S'0xff'
p232
sS'lock_bits'
p233
S'0x0F'
p234
sS'file'
p235
S'ATmegaBOOT_168_diecimila.hex'
p236
sS'path'
p237
S'atmega'
p238
sS'unlock_bits'
p239
S'0x3F'
p240
ssS'build'
p241
(dp242
S'core'
p243
S'arduino'
p244
sS'mcu'
p245
S'atmega168'
p246
sS'f_cpu'
p247
S'16000000L'
p248
sS'variant'
p249
S'eightanaloginputs'
p250
ssS'name'
p251
S'Arduino Nano w/ ATmega168'
p252
sS'upload'
p253
(dp254
S'speed'
p255
S'19200'
p256
sS'maximum_size'
p257
S'14336'
p258
sS'protocol'
p259
S'arduino'
p260
ssaa(lp261
S'mega2560'
p262
a(dp263
S'bootloader'
p264
(dp265
S'extended_fuses'
p266
S'0xFD'
p267
sS'high_fuses'
p268
S'0xD8'
p269
sS'low_fuses'
p270
S'0xFF'
p271
sS'lock_bits'
p272
S'0x0F'
p273
sS'file'
p274
S'stk500boot_v2_mega2560.hex'
p275
sS'path'
p276
S'stk500v2'
p277
sS'unlock_bits'
p278
S'0x3F'
p279
ssS'build'
p280
(dp281
S'core'
p282
S'arduino'
p283
sS'mcu'
p284
S'atmega2560'
p285
sS'f_cpu'
p286
S'16000000L'
p287
sS'variant'
p288
S'mega'
p289
ssS'name'
p290
S'Arduino Mega 2560 or Mega ADK'
p291
sS'upload'
p292
(dp293
S'speed'
p294
S'115200'
p295
sS'maximum_size'
p296
S'258048'
p297
sS'protocol'
p298
S'stk500v2'
p299
ssaa(lp300
S'mega'
p301
a(dp302
S'bootloader'
p303
(dp304
S'extended_fuses'
p305
S'0xF5'
p306
sS'high_fuses'
p307
S'0xDA'
p308
sS'low_fuses'
p309
S'0xFF'
p310
sS'lock_bits'
p311
S'0x0F'
p312
sS'file'
p313
S'ATmegaBOOT_168_atmega1280.hex'
p314
sS'path'
p315
S'atmega'
p316
sS'unlock_bits'
p317
S'0x3F'
p318
ssS'build'
p319
(dp320
S'core'
p321
S'arduino'
p322
sS'mcu'
p323
S'atmega1280'
p324
sS'f_cpu'
p325
S'16000000L'
p326
sS'variant'
p327
S'mega'
p328
ssS'name'
p329
S'Arduino Mega (ATmega1280)'
p330
sS'upload'
p331
(dp332
S'speed'
p333
S'57600'
p334
sS'maximum_size'
p335
S'126976'
p336
sS'protocol'
p337
S'arduino'
p338
ssaa(lp339
S'leonardo'
p340
a(dp341
S'bootloader'
p342
(dp343
S'extended_fuses'
p344
S'0xcb'
p345
sS'high_fuses'
p346
S'0xd8'
p347
sS'low_fuses'
p348
S'0xff'
p349
sS'lock_bits'
p350
S'0x2F'
p351
sS'file'
p352
S'Caterina-Leonardo.hex'
p353
sS'path'
p354
S'caterina'
p355
sS'unlock_bits'
p356
S'0x3F'
p357
ssS'build'
p358
(dp359
S'core'
p360
S'arduino'
p361
sS'f_cpu'
p362
S'16000000L'
p363
sS'vid'
p364
S'0x2341'
p365
sS'pid'
p366
S'0x8036'
p367
sS'variant'
p368
S'leonardo'
p369
sS'mcu'
p370
S'atmega32u4'
p371
ssS'name'
p372
S'Arduino Leonardo'
p373
sS'upload'
p374
(dp375
S'speed'
p376
S'57600'
p377
sS'maximum_size'
p378
S'28672'
p379
sS'protocol'
p380
S'avr109'
p381
sS'disable_flushing'
p382
S'true'
p383
ssaa(lp384
S'mini328'
p385
a(dp386
S'bootloader'
p387
(dp388
S'extended_fuses'
p389
S'0x05'
p390
sS'high_fuses'
p391
S'0xd8'
p392
sS'low_fuses'
p393
S'0xff'
p394
sS'lock_bits'
p395
S'0x0F'
p396
sS'file'
p397
S'optiboot_atmega328-Mini.hex'
p398
sS'path'
p399
S'optiboot'
p400
sS'unlock_bits'
p401
S'0x3F'
p402
ssS'build'
p403
(dp404
S'core'
p405
S'arduino'
p406
sS'mcu'
p407
S'atmega328p'
p408
sS'f_cpu'
p409
S'16000000L'
p410
sS'variant'
p411
S'eightanaloginputs'
p412
ssS'name'
p413
S'Arduino Mini w/ ATmega328'
p414
sS'upload'
p415
(dp416
S'speed'
p417
S'115200'
p418
sS'maximum_size'
p419
S'28672'
p420
sS'protocol'
p421
S'arduino'
p422
ssaa(lp423
S'mini'
p424
a(dp425
S'bootloader'
p426
(dp427
S'extended_fuses'
p428
S'0x00'
p429
sS'high_fuses'
p430
S'0xdd'
p431
sS'low_fuses'
p432
S'0xff'
p433
sS'lock_bits'
p434
S'0x0F'
p435
sS'file'
p436
S'ATmegaBOOT_168_ng.hex'
p437
sS'path'
p438
S'atmega'
p439
sS'unlock_bits'
p440
S'0x3F'
p441
ssS'build'
p442
(dp443
S'core'
p444
S'arduino'
p445
sS'mcu'
p446
S'atmega168'
p447
sS'f_cpu'
p448
S'16000000L'
p449
sS'variant'
p450
S'eightanaloginputs'
p451
ssS'name'
p452
S'Arduino Mini w/ ATmega168'
p453
sS'upload'
p454
(dp455
S'speed'
p456
S'19200'
p457
sS'maximum_size'
p458
S'14336'
p459
sS'protocol'
p460
S'arduino'
p461
ssaa(lp462
S'ethernet'
p463
a(dp464
S'bootloader'
p465
(dp466
S'extended_fuses'
p467
S'0x05'
p468
sS'high_fuses'
p469
S'0xde'
p470
sS'low_fuses'
p471
S'0xff'
p472
sS'lock_bits'
p473
S'0x0F'
p474
sS'file'
p475
S'optiboot_atmega328.hex'
p476
sS'path'
p477
S'optiboot'
p478
sS'unlock_bits'
p479
S'0x3F'
p480
ssS'build'
p481
(dp482
S'f_cpu'
p483
S'16000000L'
p484
sS'mcu'
p485
S'atmega328p'
p486
sS'variant'
p487
S'standard'
p488
sS'core'
p489
S'arduino'
p490
ssS'name'
p491
S'Arduino Ethernet'
p492
sS'upload'
p493
(dp494
S'speed'
p495
S'115200'
p496
sS'maximum_size'
p497
S'32256'
p498
sS'protocol'
p499
S'arduino'
p500
ssaa(lp501
S'fio'
p502
a(dp503
S'bootloader'
p504
(dp505
S'extended_fuses'
p506
S'0x05'
p507
sS'high_fuses'
p508
S'0xDA'
p509
sS'low_fuses'
p510
S'0xFF'
p511
sS'lock_bits'
p512
S'0x0F'
p513
sS'file'
p514
S'ATmegaBOOT_168_atmega328_pro_8MHz.hex'
p515
sS'path'
p516
S'arduino:atmega'
p517
sS'unlock_bits'
p518
S'0x3F'
p519
ssS'build'
p520
(dp521
S'core'
p522
S'arduino'
p523
sS'mcu'
p524
S'atmega328p'
p525
sS'f_cpu'
p526
S'8000000L'
p527
sS'variant'
p528
S'eightanaloginputs'
p529
ssS'name'
p530
S'Arduino Fio'
p531
sS'upload'
p532
(dp533
S'speed'
p534
S'57600'
p535
sS'maximum_size'
p536
S'30720'
p537
sS'protocol'
p538
S'arduino'
p539
ssaa(lp540
S'bt328'
p541
a(dp542
S'bootloader'
p543
(dp544
S'extended_fuses'
p545
S'0x05'
p546
sS'high_fuses'
p547
S'0xd8'
p548
sS'low_fuses'
p549
S'0xff'
p550
sS'lock_bits'
p551
S'0x0F'
p552
sS'file'
p553
S'ATmegaBOOT_168_atmega328_bt.hex'
p554
sS'path'
p555
S'bt'
p556
sS'unlock_bits'
p557
S'0x3F'
p558
ssS'build'
p559
(dp560
S'core'
p561
S'arduino'
p562
sS'mcu'
p563
S'atmega328p'
p564
sS'f_cpu'
p565
S'16000000L'
p566
sS'variant'
p567
S'eightanaloginputs'
p568
ssS'name'
p569
S'Arduino BT w/ ATmega328'
p570
sS'upload'
p571
(dp572
S'speed'
p573
S'19200'
p574
sS'maximum_size'
p575
S'28672'
p576
sS'protocol'
p577
S'arduino'
p578
sS'disable_flushing'
p579
S'true'
p580
ssaa(lp581
S'bt'
p582
a(dp583
S'bootloader'
p584
(dp585
S'extended_fuses'
p586
S'0x00'
p587
sS'high_fuses'
p588
S'0xdd'
p589
sS'low_fuses'
p590
S'0xff'
p591
sS'lock_bits'
p592
S'0x0F'
p593
sS'file'
p594
S'ATmegaBOOT_168.hex'
p595
sS'path'
p596
S'bt'
p597
sS'unlock_bits'
p598
S'0x3F'
p599
ssS'build'
p600
(dp601
S'core'
p602
S'arduino'
p603
sS'mcu'
p604
S'atmega168'
p605
sS'f_cpu'
p606
S'16000000L'
p607
sS'variant'
p608
S'eightanaloginputs'
p609
ssS'name'
p610
S'Arduino BT w/ ATmega168'
p611
sS'upload'
p612
(dp613
S'speed'
p614
S'19200'
p615
sS'maximum_size'
p616
S'14336'
p617
sS'protocol'
p618
S'arduino'
p619
sS'disable_flushing'
p620
S'true'
p621
ssaa(lp622
S'lilypad328'
p623
a(dp624
S'bootloader'
p625
(dp626
S'extended_fuses'
p627
S'0x05'
p628
sS'high_fuses'
p629
S'0xDA'
p630
sS'low_fuses'
p631
S'0xFF'
p632
sS'lock_bits'
p633
S'0x0F'
p634
sS'file'
p635
S'ATmegaBOOT_168_atmega328_pro_8MHz.hex'
p636
sS'path'
p637
S'atmega'
p638
sS'unlock_bits'
p639
S'0x3F'
p640
ssS'build'
p641
(dp642
S'core'
p643
S'arduino'
p644
sS'mcu'
p645
S'atmega328p'
p646
sS'f_cpu'
p647
S'8000000L'
p648
sS'variant'
p649
S'standard'
p650
ssS'name'
p651
S'LilyPad Arduino w/ ATmega328'
p652
sS'upload'
p653
(dp654
S'speed'
p655
S'57600'
p656
sS'maximum_size'
p657
S'30720'
p658
sS'protocol'
p659
S'arduino'
p660
ssaa(lp661
S'lilypad'
p662
a(dp663
S'bootloader'
p664
(dp665
S'extended_fuses'
p666
S'0x00'
p667
sS'high_fuses'
p668
S'0xdd'
p669
sS'low_fuses'
p670
S'0xe2'
p671
sS'lock_bits'
p672
S'0x0F'
p673
sS'file'
p674
S'LilyPadBOOT_168.hex'
p675
sS'path'
p676
S'lilypad'
p677
sS'unlock_bits'
p678
S'0x3F'
p679
ssS'build'
p680
(dp681
S'core'
p682
S'arduino'
p683
sS'mcu'
p684
S'atmega168'
p685
sS'f_cpu'
p686
S'8000000L'
p687
sS'variant'
p688
S'standard'
p689
ssS'name'
p690
S'LilyPad Arduino w/ ATmega168'
p691
sS'upload'
p692
(dp693
S'speed'
p694
S'19200'
p695
sS'maximum_size'
p696
S'14336'
p697
sS'protocol'
p698
S'arduino'
p699
ssaa(lp700
S'pro5v328'
p701
a(dp702
S'bootloader'
p703
(dp704
S'extended_fuses'
p705
S'0x05'
p706
sS'high_fuses'
p707
S'0xDA'
p708
sS'low_fuses'
p709
S'0xFF'
p710
sS'lock_bits'
p711
S'0x0F'
p712
sS'file'
p713
S'ATmegaBOOT_168_atmega328.hex'
p714
sS'path'
p715
S'atmega'
p716
sS'unlock_bits'
p717
S'0x3F'
p718
ssS'build'
p719
(dp720
S'core'
p721
S'arduino'
p722
sS'mcu'
p723
S'atmega328p'
p724
sS'f_cpu'
p725
S'16000000L'
p726
sS'variant'
p727
S'standard'
p728
ssS'name'
p729
S'Arduino Pro or Pro Mini (5V, 16 MHz) w/ ATmega328'
p730
sS'upload'
p731
(dp732
S'speed'
p733
S'57600'
p734
sS'maximum_size'
p735
S'30720'
p736
sS'protocol'
p737
S'arduino'
p738
ssaa(lp739
S'pro5v'
p740
a(dp741
S'bootloader'
p742
(dp743
S'extended_fuses'
p744
S'0x00'
p745
sS'high_fuses'
p746
S'0xdd'
p747
sS'low_fuses'
p748
S'0xff'
p749
sS'lock_bits'
p750
S'0x0F'
p751
sS'file'
p752
S'ATmegaBOOT_168_diecimila.hex'
p753
sS'path'
p754
S'atmega'
p755
sS'unlock_bits'
p756
S'0x3F'
p757
ssS'build'
p758
(dp759
S'core'
p760
S'arduino'
p761
sS'mcu'
p762
S'atmega168'
p763
sS'f_cpu'
p764
S'16000000L'
p765
sS'variant'
p766
S'standard'
p767
ssS'name'
p768
S'Arduino Pro or Pro Mini (5V, 16 MHz) w/ ATmega168'
p769
sS'upload'
p770
(dp771
S'speed'
p772
S'19200'
p773
sS'maximum_size'
p774
S'14336'
p775
sS'protocol'
p776
S'arduino'
p777
ssaa(lp778
S'pro328'
p779
a(dp780
S'bootloader'
p781
(dp782
S'extended_fuses'
p783
S'0x05'
p784
sS'high_fuses'
p785
S'0xDA'
p786
sS'low_fuses'
p787
S'0xFF'
p788
sS'lock_bits'
p789
S'0x0F'
p790
sS'file'
p791
S'ATmegaBOOT_168_atmega328_pro_8MHz.hex'
p792
sS'path'
p793
S'atmega'
p794
sS'unlock_bits'
p795
S'0x3F'
p796
ssS'build'
p797
(dp798
S'core'
p799
S'arduino'
p800
sS'mcu'
p801
S'atmega328p'
p802
sS'f_cpu'
p803
S'8000000L'
p804
sS'variant'
p805
S'standard'
p806
ssS'name'
p807
S'Arduino Pro or Pro Mini (3.3V, 8 MHz) w/ ATmega328'
p808
sS'upload'
p809
(dp810
S'speed'
p811
S'57600'
p812
sS'maximum_size'
p813
S'30720'
p814
sS'protocol'
p815
S'arduino'
p816
ssaa(lp817
S'pro'
p818
a(dp819
S'bootloader'
p820
(dp821
S'extended_fuses'
p822
S'0x00'
p823
sS'high_fuses'
p824
S'0xdd'
p825
sS'low_fuses'
p826
S'0xc6'
p827
sS'lock_bits'
p828
S'0x0F'
p829
sS'file'
p830
S'ATmegaBOOT_168_pro_8MHz.hex'
p831
sS'path'
p832
S'atmega'
p833
sS'unlock_bits'
p834
S'0x3F'
p835
ssS'build'
p836
(dp837
S'core'
p838
S'arduino'
p839
sS'mcu'
p840
S'atmega168'
p841
sS'f_cpu'
p842
S'8000000L'
p843
sS'variant'
p844
S'standard'
p845
ssS'name'
p846
S'Arduino Pro or Pro Mini (3.3V, 8 MHz) w/ ATmega168'
p847
sS'upload'
p848
(dp849
S'speed'
p850
S'19200'
p851
sS'maximum_size'
p852
S'14336'
p853
sS'protocol'
p854
S'arduino'
p855
ssaa(lp856
S'atmega168'
p857
a(dp858
S'bootloader'
p859
(dp860
S'extended_fuses'
p861
S'0x00'
p862
sS'high_fuses'
p863
S'0xdd'
p864
sS'low_fuses'
p865
S'0xff'
p866
sS'lock_bits'
p867
S'0x0F'
p868
sS'file'
p869
S'ATmegaBOOT_168_ng.hex'
p870
sS'path'
p871
S'atmega'
p872
sS'unlock_bits'
p873
S'0x3F'
p874
ssS'build'
p875
(dp876
S'core'
p877
S'arduino'
p878
sS'mcu'
p879
S'atmega168'
p880
sS'f_cpu'
p881
S'16000000L'
p882
sS'variant'
p883
S'standard'
p884
ssS'name'
p885
S'Arduino NG or older w/ ATmega168'
p886
sS'upload'
p887
(dp888
S'speed'
p889
S'19200'
p890
sS'maximum_size'
p891
S'14336'
p892
sS'protocol'
p893
S'arduino'
p894
ssaa(lp895
S'atmega8'
p896
a(dp897
S'bootloader'
p898
(dp899
S'high_fuses'
p900
S'0xca'
p901
sS'low_fuses'
p902
S'0xdf'
p903
sS'lock_bits'
p904
S'0x0F'
p905
sS'file'
p906
S'ATmegaBOOT.hex'
p907
sS'path'
p908
S'atmega8'
p909
sS'unlock_bits'
p910
S'0x3F'
p911
ssS'build'
p912
(dp913
S'core'
p914
S'arduino'
p915
sS'mcu'
p916
S'atmega8'
p917
sS'f_cpu'
p918
S'16000000L'
p919
sS'variant'
p920
S'standard'
p921
ssS'name'
p922
S'Arduino NG or older w/ ATmega8'
p923
sS'upload'
p924
(dp925
S'speed'
p926
S'19200'
p927
sS'maximum_size'
p928
S'7168'
p929
sS'protocol'
p930
S'arduino'
p931
ssaatp932
Rp933
(dp934
S'default'
p935
S'uno'
p936
sbtp937
a(S'used_libs'
p938
(lp939
S'lib/LiquidCrystal595'
p940
aS'/usr/share/arduino/libraries/Wire'
p941
aS'/usr/share/arduino/hardware/arduino/cores/arduino'
p942
atp943
a(S'make'
p944
S'/usr/bin/make'
p945
tp946
a(S'build_dir'
p947
S'.build/uno'
p948
tp949
a(S'cc'
p950
S'/usr/bin/avr-gcc'
p951
tp952
a(S'cflags'
p953
g2
(g3
g4
(lp954
tp955
Rp956
tp957
a(S'cxxflags'
p958
g2
(g3
g4
(lp959
S'-fno-exceptions'
p960
atp961
Rp962
tp963
a(S'arduino_variants_dir'
p964
S'/usr/share/arduino/hardware/arduino/variants'
p965
tp966
a(S'stty'
p967
S'/bin/stty'
p968
tp969
a(S'version.txt'
p970
S'/usr/share/arduino/lib/version.txt'
p971
tp972
a(S'arduino_core_dir'
p973
g942
tp974
a(S'boards.txt'
p975
S'/usr/share/arduino/hardware/arduino/boards.txt'
p976
tp977
a(S'avrdude.conf'
p978
S'/usr/share/arduino/hardware/tools/avrdude.conf'
p979
tp980
a(S'deps'
p981
g2
(g3
g4
(lp982
S'.build/uno/src/dependencies.d'
p983
aS'.build/uno/arduino/dependencies.d'
p984
aS'.build/uno/LiquidCrystal595/dependencies.d'
p985
aS'.build/uno/Wire/dependencies.d'
p986
atp987
Rp988
tp989
a.