(lp0
(S'cppflags'
p1
ccopy_reg
_reconstructor
p2
(cino.utils
SpaceList
p3
c__builtin__
list
p4
(lp5
S'-mmcu=atmega328p'
p6
aS'-DF_CPU=16000000L'
p7
aS'-DARDUINO=101'
p8
aS'-I/usr/share/arduino/hardware/arduino/cores/arduino'
p9
aS'-ffunction-sections'
p10
aS'-fdata-sections'
p11
aS'-g'
p12
aS'-Os'
p13
aS'-w'
p14
aS'-I/usr/share/arduino/hardware/arduino/variants/standard'
p15
aS'-Ilib/LiquidCrystal595'
p16
aS'-I/usr/share/arduino/libraries/Wire'
p17
aS'-I/usr/share/arduino/libraries/Wire/utility'
p18
aS'-I/usr/share/arduino/hardware/arduino/cores/arduino'
p19
atp20
Rp21
tp22
a(S'cxx'
p23
S'/usr/bin/avr-g++'
p24
tp25
a(S'build_dir'
p26
S'.build/uno'
p27
tp28
a(S'avrdude'
p29
S'/usr/share/arduino/hardware/tools/avrdude'
p30
tp31
a(S'ar'
p32
S'/usr/bin/avr-ar'
p33
tp34
a(S'names'
p35
(dp36
S'cpp'
p37
S'%s.cpp'
p38
sS'obj'
p39
S'%s.o'
p40
sS'deps'
p41
S'%s.d'
p42
sS'lib'
p43
S'lib%s.a'
p44
stp45
a(S'ldflags'
p46
g2
(g3
g4
(lp47
g6
aS'-Wl,-Os'
p48
aS'-Wl,--gc-sections'
p49
atp50
Rp51
tp52
a(S'arduino_lib_version'
p53
g2
(cino.environment
Version
p54
c__builtin__
tuple
p55
(I1
I0
I1
tp56
tp57
Rp58
tp59
a(S'objcopy'
p60
S'/usr/bin/avr-objcopy'
p61
tp62
a(S'board_models'
p63
cino.environment
BoardModels
p64
((lp65
(lp66
S'uno'
p67
a(dp68
S'bootloader'
p69
(dp70
S'extended_fuses'
p71
S'0x05'
p72
sS'high_fuses'
p73
S'0xde'
p74
sS'low_fuses'
p75
S'0xff'
p76
sS'lock_bits'
p77
S'0x0F'
p78
sS'file'
p79
S'optiboot_atmega328.hex'
p80
sS'path'
p81
S'optiboot'
p82
sS'unlock_bits'
p83
S'0x3F'
p84
ssS'upload'
p85
(dp86
S'speed'
p87
S'115200'
p88
sS'maximum_size'
p89
S'32256'
p90
sS'protocol'
p91
S'arduino'
p92
ssS'name'
p93
S'Arduino Uno'
p94
sS'build'
p95
(dp96
S'core'
p97
S'arduino'
p98
sS'mcu'
p99
S'atmega328p'
p100
sS'f_cpu'
p101
S'16000000L'
p102
sS'variant'
p103
S'standard'
p104
ssaa(lp105
S'atmega328'
p106
a(dp107
S'bootloader'
p108
(dp109
S'extended_fuses'
p110
S'0x05'
p111
sS'high_fuses'
p112
S'0xDA'
p113
sS'low_fuses'
p114
S'0xFF'
p115
sS'lock_bits'
p116
S'0x0F'
p117
sS'file'
p118
S'ATmegaBOOT_168_atmega328.hex'
p119
sS'path'
p120
S'atmega'
p121
sS'unlock_bits'
p122
S'0x3F'
p123
ssS'upload'
p124
(dp125
S'speed'
p126
S'57600'
p127
sS'maximum_size'
p128
S'30720'
p129
sS'protocol'
p130
S'arduino'
p131
ssS'name'
p132
S'Arduino Duemilanove w/ ATmega328'
p133
sS'build'
p134
(dp135
S'core'
p136
S'arduino'
p137
sS'mcu'
p138
S'atmega328p'
p139
sS'f_cpu'
p140
S'16000000L'
p141
sS'variant'
p142
S'standard'
p143
ssaa(lp144
S'diecimila'
p145
a(dp146
S'bootloader'
p147
(dp148
S'extended_fuses'
p149
S'0x00'
p150
sS'high_fuses'
p151
S'0xdd'
p152
sS'low_fuses'
p153
S'0xff'
p154
sS'lock_bits'
p155
S'0x0F'
p156
sS'file'
p157
S'ATmegaBOOT_168_diecimila.hex'
p158
sS'path'
p159
S'atmega'
p160
sS'unlock_bits'
p161
S'0x3F'
p162
ssS'upload'
p163
(dp164
S'speed'
p165
S'19200'
p166
sS'maximum_size'
p167
S'14336'
p168
sS'protocol'
p169
S'arduino'
p170
ssS'name'
p171
S'Arduino Diecimila or Duemilanove w/ ATmega168'
p172
sS'build'
p173
(dp174
S'core'
p175
S'arduino'
p176
sS'mcu'
p177
S'atmega168'
p178
sS'f_cpu'
p179
S'16000000L'
p180
sS'variant'
p181
S'standard'
p182
ssaa(lp183
S'nano328'
p184
a(dp185
S'bootloader'
p186
(dp187
S'extended_fuses'
p188
S'0x05'
p189
sS'high_fuses'
p190
S'0xDA'
p191
sS'low_fuses'
p192
S'0xFF'
p193
sS'lock_bits'
p194
S'0x0F'
p195
sS'file'
p196
S'ATmegaBOOT_168_atmega328.hex'
p197
sS'path'
p198
S'atmega'
p199
sS'unlock_bits'
p200
S'0x3F'
p201
ssS'upload'
p202
(dp203
S'speed'
p204
S'57600'
p205
sS'maximum_size'
p206
S'30720'
p207
sS'protocol'
p208
S'arduino'
p209
ssS'name'
p210
S'Arduino Nano w/ ATmega328'
p211
sS'build'
p212
(dp213
S'core'
p214
S'arduino'
p215
sS'mcu'
p216
S'atmega328p'
p217
sS'f_cpu'
p218
S'16000000L'
p219
sS'variant'
p220
S'eightanaloginputs'
p221
ssaa(lp222
S'nano'
p223
a(dp224
S'bootloader'
p225
(dp226
S'extended_fuses'
p227
S'0x00'
p228
sS'high_fuses'
p229
S'0xdd'
p230
sS'low_fuses'
p231
S'0xff'
p232
sS'lock_bits'
p233
S'0x0F'
p234
sS'file'
p235
S'ATmegaBOOT_168_diecimila.hex'
p236
sS'path'
p237
S'atmega'
p238
sS'unlock_bits'
p239
S'0x3F'
p240
ssS'upload'
p241
(dp242
S'speed'
p243
S'19200'
p244
sS'maximum_size'
p245
S'14336'
p246
sS'protocol'
p247
S'arduino'
p248
ssS'name'
p249
S'Arduino Nano w/ ATmega168'
p250
sS'build'
p251
(dp252
S'core'
p253
S'arduino'
p254
sS'mcu'
p255
S'atmega168'
p256
sS'f_cpu'
p257
S'16000000L'
p258
sS'variant'
p259
S'eightanaloginputs'
p260
ssaa(lp261
S'mega2560'
p262
a(dp263
S'bootloader'
p264
(dp265
S'extended_fuses'
p266
S'0xFD'
p267
sS'high_fuses'
p268
S'0xD8'
p269
sS'low_fuses'
p270
S'0xFF'
p271
sS'lock_bits'
p272
S'0x0F'
p273
sS'file'
p274
S'stk500boot_v2_mega2560.hex'
p275
sS'path'
p276
S'stk500v2'
p277
sS'unlock_bits'
p278
S'0x3F'
p279
ssS'upload'
p280
(dp281
S'speed'
p282
S'115200'
p283
sS'maximum_size'
p284
S'258048'
p285
sS'protocol'
p286
S'stk500v2'
p287
ssS'name'
p288
S'Arduino Mega 2560 or Mega ADK'
p289
sS'build'
p290
(dp291
S'core'
p292
S'arduino'
p293
sS'mcu'
p294
S'atmega2560'
p295
sS'f_cpu'
p296
S'16000000L'
p297
sS'variant'
p298
S'mega'
p299
ssaa(lp300
S'mega'
p301
a(dp302
S'bootloader'
p303
(dp304
S'extended_fuses'
p305
S'0xF5'
p306
sS'high_fuses'
p307
S'0xDA'
p308
sS'low_fuses'
p309
S'0xFF'
p310
sS'lock_bits'
p311
S'0x0F'
p312
sS'file'
p313
S'ATmegaBOOT_168_atmega1280.hex'
p314
sS'path'
p315
S'atmega'
p316
sS'unlock_bits'
p317
S'0x3F'
p318
ssS'upload'
p319
(dp320
S'speed'
p321
S'57600'
p322
sS'maximum_size'
p323
S'126976'
p324
sS'protocol'
p325
S'arduino'
p326
ssS'name'
p327
S'Arduino Mega (ATmega1280)'
p328
sS'build'
p329
(dp330
S'core'
p331
S'arduino'
p332
sS'mcu'
p333
S'atmega1280'
p334
sS'f_cpu'
p335
S'16000000L'
p336
sS'variant'
p337
S'mega'
p338
ssaa(lp339
S'leonardo'
p340
a(dp341
S'bootloader'
p342
(dp343
S'extended_fuses'
p344
S'0xcb'
p345
sS'high_fuses'
p346
S'0xd8'
p347
sS'low_fuses'
p348
S'0xff'
p349
sS'lock_bits'
p350
S'0x2F'
p351
sS'file'
p352
S'Caterina-Leonardo.hex'
p353
sS'path'
p354
S'caterina'
p355
sS'unlock_bits'
p356
S'0x3F'
p357
ssS'upload'
p358
(dp359
S'speed'
p360
S'57600'
p361
sS'maximum_size'
p362
S'28672'
p363
sS'protocol'
p364
S'avr109'
p365
sS'disable_flushing'
p366
S'true'
p367
ssS'name'
p368
S'Arduino Leonardo'
p369
sS'build'
p370
(dp371
S'core'
p372
S'arduino'
p373
sS'f_cpu'
p374
S'16000000L'
p375
sS'vid'
p376
S'0x2341'
p377
sS'pid'
p378
S'0x8036'
p379
sS'variant'
p380
S'leonardo'
p381
sS'mcu'
p382
S'atmega32u4'
p383
ssaa(lp384
S'mini328'
p385
a(dp386
S'bootloader'
p387
(dp388
S'extended_fuses'
p389
S'0x05'
p390
sS'high_fuses'
p391
S'0xd8'
p392
sS'low_fuses'
p393
S'0xff'
p394
sS'lock_bits'
p395
S'0x0F'
p396
sS'file'
p397
S'optiboot_atmega328-Mini.hex'
p398
sS'path'
p399
S'optiboot'
p400
sS'unlock_bits'
p401
S'0x3F'
p402
ssS'upload'
p403
(dp404
S'speed'
p405
S'115200'
p406
sS'maximum_size'
p407
S'28672'
p408
sS'protocol'
p409
S'arduino'
p410
ssS'name'
p411
S'Arduino Mini w/ ATmega328'
p412
sS'build'
p413
(dp414
S'core'
p415
S'arduino'
p416
sS'mcu'
p417
S'atmega328p'
p418
sS'f_cpu'
p419
S'16000000L'
p420
sS'variant'
p421
S'eightanaloginputs'
p422
ssaa(lp423
S'mini'
p424
a(dp425
S'bootloader'
p426
(dp427
S'extended_fuses'
p428
S'0x00'
p429
sS'high_fuses'
p430
S'0xdd'
p431
sS'low_fuses'
p432
S'0xff'
p433
sS'lock_bits'
p434
S'0x0F'
p435
sS'file'
p436
S'ATmegaBOOT_168_ng.hex'
p437
sS'path'
p438
S'atmega'
p439
sS'unlock_bits'
p440
S'0x3F'
p441
ssS'upload'
p442
(dp443
S'speed'
p444
S'19200'
p445
sS'maximum_size'
p446
S'14336'
p447
sS'protocol'
p448
S'arduino'
p449
ssS'name'
p450
S'Arduino Mini w/ ATmega168'
p451
sS'build'
p452
(dp453
S'core'
p454
S'arduino'
p455
sS'mcu'
p456
S'atmega168'
p457
sS'f_cpu'
p458
S'16000000L'
p459
sS'variant'
p460
S'eightanaloginputs'
p461
ssaa(lp462
S'ethernet'
p463
a(dp464
S'bootloader'
p465
(dp466
S'extended_fuses'
p467
S'0x05'
p468
sS'high_fuses'
p469
S'0xde'
p470
sS'low_fuses'
p471
S'0xff'
p472
sS'lock_bits'
p473
S'0x0F'
p474
sS'file'
p475
S'optiboot_atmega328.hex'
p476
sS'path'
p477
S'optiboot'
p478
sS'unlock_bits'
p479
S'0x3F'
p480
ssS'upload'
p481
(dp482
S'speed'
p483
S'115200'
p484
sS'maximum_size'
p485
S'32256'
p486
sS'protocol'
p487
S'arduino'
p488
ssS'name'
p489
S'Arduino Ethernet'
p490
sS'build'
p491
(dp492
S'f_cpu'
p493
S'16000000L'
p494
sS'mcu'
p495
S'atmega328p'
p496
sS'variant'
p497
S'standard'
p498
sS'core'
p499
S'arduino'
p500
ssaa(lp501
S'fio'
p502
a(dp503
S'bootloader'
p504
(dp505
S'extended_fuses'
p506
S'0x05'
p507
sS'high_fuses'
p508
S'0xDA'
p509
sS'low_fuses'
p510
S'0xFF'
p511
sS'lock_bits'
p512
S'0x0F'
p513
sS'file'
p514
S'ATmegaBOOT_168_atmega328_pro_8MHz.hex'
p515
sS'path'
p516
S'arduino:atmega'
p517
sS'unlock_bits'
p518
S'0x3F'
p519
ssS'upload'
p520
(dp521
S'speed'
p522
S'57600'
p523
sS'maximum_size'
p524
S'30720'
p525
sS'protocol'
p526
S'arduino'
p527
ssS'name'
p528
S'Arduino Fio'
p529
sS'build'
p530
(dp531
S'core'
p532
S'arduino'
p533
sS'mcu'
p534
S'atmega328p'
p535
sS'f_cpu'
p536
S'8000000L'
p537
sS'variant'
p538
S'eightanaloginputs'
p539
ssaa(lp540
S'bt328'
p541
a(dp542
S'bootloader'
p543
(dp544
S'extended_fuses'
p545
S'0x05'
p546
sS'high_fuses'
p547
S'0xd8'
p548
sS'low_fuses'
p549
S'0xff'
p550
sS'lock_bits'
p551
S'0x0F'
p552
sS'file'
p553
S'ATmegaBOOT_168_atmega328_bt.hex'
p554
sS'path'
p555
S'bt'
p556
sS'unlock_bits'
p557
S'0x3F'
p558
ssS'upload'
p559
(dp560
S'speed'
p561
S'19200'
p562
sS'maximum_size'
p563
S'28672'
p564
sS'protocol'
p565
S'arduino'
p566
sS'disable_flushing'
p567
S'true'
p568
ssS'name'
p569
S'Arduino BT w/ ATmega328'
p570
sS'build'
p571
(dp572
S'core'
p573
S'arduino'
p574
sS'mcu'
p575
S'atmega328p'
p576
sS'f_cpu'
p577
S'16000000L'
p578
sS'variant'
p579
S'eightanaloginputs'
p580
ssaa(lp581
S'bt'
p582
a(dp583
S'bootloader'
p584
(dp585
S'extended_fuses'
p586
S'0x00'
p587
sS'high_fuses'
p588
S'0xdd'
p589
sS'low_fuses'
p590
S'0xff'
p591
sS'lock_bits'
p592
S'0x0F'
p593
sS'file'
p594
S'ATmegaBOOT_168.hex'
p595
sS'path'
p596
S'bt'
p597
sS'unlock_bits'
p598
S'0x3F'
p599
ssS'upload'
p600
(dp601
S'speed'
p602
S'19200'
p603
sS'maximum_size'
p604
S'14336'
p605
sS'protocol'
p606
S'arduino'
p607
sS'disable_flushing'
p608
S'true'
p609
ssS'name'
p610
S'Arduino BT w/ ATmega168'
p611
sS'build'
p612
(dp613
S'core'
p614
S'arduino'
p615
sS'mcu'
p616
S'atmega168'
p617
sS'f_cpu'
p618
S'16000000L'
p619
sS'variant'
p620
S'eightanaloginputs'
p621
ssaa(lp622
S'lilypad328'
p623
a(dp624
S'bootloader'
p625
(dp626
S'extended_fuses'
p627
S'0x05'
p628
sS'high_fuses'
p629
S'0xDA'
p630
sS'low_fuses'
p631
S'0xFF'
p632
sS'lock_bits'
p633
S'0x0F'
p634
sS'file'
p635
S'ATmegaBOOT_168_atmega328_pro_8MHz.hex'
p636
sS'path'
p637
S'atmega'
p638
sS'unlock_bits'
p639
S'0x3F'
p640
ssS'upload'
p641
(dp642
S'speed'
p643
S'57600'
p644
sS'maximum_size'
p645
S'30720'
p646
sS'protocol'
p647
S'arduino'
p648
ssS'name'
p649
S'LilyPad Arduino w/ ATmega328'
p650
sS'build'
p651
(dp652
S'core'
p653
S'arduino'
p654
sS'mcu'
p655
S'atmega328p'
p656
sS'f_cpu'
p657
S'8000000L'
p658
sS'variant'
p659
S'standard'
p660
ssaa(lp661
S'lilypad'
p662
a(dp663
S'bootloader'
p664
(dp665
S'extended_fuses'
p666
S'0x00'
p667
sS'high_fuses'
p668
S'0xdd'
p669
sS'low_fuses'
p670
S'0xe2'
p671
sS'lock_bits'
p672
S'0x0F'
p673
sS'file'
p674
S'LilyPadBOOT_168.hex'
p675
sS'path'
p676
S'lilypad'
p677
sS'unlock_bits'
p678
S'0x3F'
p679
ssS'upload'
p680
(dp681
S'speed'
p682
S'19200'
p683
sS'maximum_size'
p684
S'14336'
p685
sS'protocol'
p686
S'arduino'
p687
ssS'name'
p688
S'LilyPad Arduino w/ ATmega168'
p689
sS'build'
p690
(dp691
S'core'
p692
S'arduino'
p693
sS'mcu'
p694
S'atmega168'
p695
sS'f_cpu'
p696
S'8000000L'
p697
sS'variant'
p698
S'standard'
p699
ssaa(lp700
S'pro5v328'
p701
a(dp702
S'bootloader'
p703
(dp704
S'extended_fuses'
p705
S'0x05'
p706
sS'high_fuses'
p707
S'0xDA'
p708
sS'low_fuses'
p709
S'0xFF'
p710
sS'lock_bits'
p711
S'0x0F'
p712
sS'file'
p713
S'ATmegaBOOT_168_atmega328.hex'
p714
sS'path'
p715
S'atmega'
p716
sS'unlock_bits'
p717
S'0x3F'
p718
ssS'upload'
p719
(dp720
S'speed'
p721
S'57600'
p722
sS'maximum_size'
p723
S'30720'
p724
sS'protocol'
p725
S'arduino'
p726
ssS'name'
p727
S'Arduino Pro or Pro Mini (5V, 16 MHz) w/ ATmega328'
p728
sS'build'
p729
(dp730
S'core'
p731
S'arduino'
p732
sS'mcu'
p733
S'atmega328p'
p734
sS'f_cpu'
p735
S'16000000L'
p736
sS'variant'
p737
S'standard'
p738
ssaa(lp739
S'pro5v'
p740
a(dp741
S'bootloader'
p742
(dp743
S'extended_fuses'
p744
S'0x00'
p745
sS'high_fuses'
p746
S'0xdd'
p747
sS'low_fuses'
p748
S'0xff'
p749
sS'lock_bits'
p750
S'0x0F'
p751
sS'file'
p752
S'ATmegaBOOT_168_diecimila.hex'
p753
sS'path'
p754
S'atmega'
p755
sS'unlock_bits'
p756
S'0x3F'
p757
ssS'upload'
p758
(dp759
S'speed'
p760
S'19200'
p761
sS'maximum_size'
p762
S'14336'
p763
sS'protocol'
p764
S'arduino'
p765
ssS'name'
p766
S'Arduino Pro or Pro Mini (5V, 16 MHz) w/ ATmega168'
p767
sS'build'
p768
(dp769
S'core'
p770
S'arduino'
p771
sS'mcu'
p772
S'atmega168'
p773
sS'f_cpu'
p774
S'16000000L'
p775
sS'variant'
p776
S'standard'
p777
ssaa(lp778
S'pro328'
p779
a(dp780
S'bootloader'
p781
(dp782
S'extended_fuses'
p783
S'0x05'
p784
sS'high_fuses'
p785
S'0xDA'
p786
sS'low_fuses'
p787
S'0xFF'
p788
sS'lock_bits'
p789
S'0x0F'
p790
sS'file'
p791
S'ATmegaBOOT_168_atmega328_pro_8MHz.hex'
p792
sS'path'
p793
S'atmega'
p794
sS'unlock_bits'
p795
S'0x3F'
p796
ssS'upload'
p797
(dp798
S'speed'
p799
S'57600'
p800
sS'maximum_size'
p801
S'30720'
p802
sS'protocol'
p803
S'arduino'
p804
ssS'name'
p805
S'Arduino Pro or Pro Mini (3.3V, 8 MHz) w/ ATmega328'
p806
sS'build'
p807
(dp808
S'core'
p809
S'arduino'
p810
sS'mcu'
p811
S'atmega328p'
p812
sS'f_cpu'
p813
S'8000000L'
p814
sS'variant'
p815
S'standard'
p816
ssaa(lp817
S'pro'
p818
a(dp819
S'bootloader'
p820
(dp821
S'extended_fuses'
p822
S'0x00'
p823
sS'high_fuses'
p824
S'0xdd'
p825
sS'low_fuses'
p826
S'0xc6'
p827
sS'lock_bits'
p828
S'0x0F'
p829
sS'file'
p830
S'ATmegaBOOT_168_pro_8MHz.hex'
p831
sS'path'
p832
S'atmega'
p833
sS'unlock_bits'
p834
S'0x3F'
p835
ssS'upload'
p836
(dp837
S'speed'
p838
S'19200'
p839
sS'maximum_size'
p840
S'14336'
p841
sS'protocol'
p842
S'arduino'
p843
ssS'name'
p844
S'Arduino Pro or Pro Mini (3.3V, 8 MHz) w/ ATmega168'
p845
sS'build'
p846
(dp847
S'core'
p848
S'arduino'
p849
sS'mcu'
p850
S'atmega168'
p851
sS'f_cpu'
p852
S'8000000L'
p853
sS'variant'
p854
S'standard'
p855
ssaa(lp856
S'atmega168'
p857
a(dp858
S'bootloader'
p859
(dp860
S'extended_fuses'
p861
S'0x00'
p862
sS'high_fuses'
p863
S'0xdd'
p864
sS'low_fuses'
p865
S'0xff'
p866
sS'lock_bits'
p867
S'0x0F'
p868
sS'file'
p869
S'ATmegaBOOT_168_ng.hex'
p870
sS'path'
p871
S'atmega'
p872
sS'unlock_bits'
p873
S'0x3F'
p874
ssS'upload'
p875
(dp876
S'speed'
p877
S'19200'
p878
sS'maximum_size'
p879
S'14336'
p880
sS'protocol'
p881
S'arduino'
p882
ssS'name'
p883
S'Arduino NG or older w/ ATmega168'
p884
sS'build'
p885
(dp886
S'core'
p887
S'arduino'
p888
sS'mcu'
p889
S'atmega168'
p890
sS'f_cpu'
p891
S'16000000L'
p892
sS'variant'
p893
S'standard'
p894
ssaa(lp895
S'atmega8'
p896
a(dp897
S'bootloader'
p898
(dp899
S'high_fuses'
p900
S'0xca'
p901
sS'low_fuses'
p902
S'0xdf'
p903
sS'lock_bits'
p904
S'0x0F'
p905
sS'file'
p906
S'ATmegaBOOT.hex'
p907
sS'path'
p908
S'atmega8'
p909
sS'unlock_bits'
p910
S'0x3F'
p911
ssS'upload'
p912
(dp913
S'speed'
p914
S'19200'
p915
sS'maximum_size'
p916
S'7168'
p917
sS'protocol'
p918
S'arduino'
p919
ssS'name'
p920
S'Arduino NG or older w/ ATmega8'
p921
sS'build'
p922
(dp923
S'core'
p924
S'arduino'
p925
sS'mcu'
p926
S'atmega8'
p927
sS'f_cpu'
p928
S'16000000L'
p929
sS'variant'
p930
S'standard'
p931
ssaatp932
Rp933
(dp934
S'default'
p935
S'uno'
p936
sbtp937
a(S'used_libs'
p938
(lp939
S'lib/LiquidCrystal595'
p940
aS'/usr/share/arduino/libraries/Wire'
p941
aS'/usr/share/arduino/hardware/arduino/cores/arduino'
p942
atp943
a(S'make'
p944
S'/usr/bin/make'
p945
tp946
a(S'arduino_libraries_dir'
p947
S'/usr/share/arduino/libraries'
p948
tp949
a(S'cc'
p950
S'/usr/bin/avr-gcc'
p951
tp952
a(S'cflags'
p953
g2
(g3
g4
(lp954
tp955
Rp956
tp957
a(S'cxxflags'
p958
g2
(g3
g4
(lp959
S'-fno-exceptions'
p960
atp961
Rp962
tp963
a(S'arduino_variants_dir'
p964
S'/usr/share/arduino/hardware/arduino/variants'
p965
tp966
a(S'serial'
p967
S'/usr/bin/picocom'
p968
tp969
a(S'stty'
p970
S'/bin/stty'
p971
tp972
a(S'version.txt'
p973
S'/usr/share/arduino/lib/version.txt'
p974
tp975
a(S'arduino_core_dir'
p976
g942
tp977
a(S'boards.txt'
p978
S'/usr/share/arduino/hardware/arduino/boards.txt'
p979
tp980
a(S'avrdude.conf'
p981
S'/usr/share/arduino/hardware/tools/avrdude.conf'
p982
tp983
a(S'deps'
p984
g2
(g3
g4
(lp985
S'.build/uno/src/dependencies.d'
p986
aS'.build/uno/arduino/dependencies.d'
p987
aS'.build/uno/LiquidCrystal595/dependencies.d'
p988
aS'.build/uno/Wire/dependencies.d'
p989
atp990
Rp991
tp992
a.