(lp0
(S'cppflags'
p1
ccopy_reg
_reconstructor
p2
(cino.utils
SpaceList
p3
c__builtin__
list
p4
(lp5
S'-mmcu=atmega328p'
p6
aS'-DF_CPU=16000000L'
p7
aS'-DARDUINO=101'
p8
aS'-I/usr/share/arduino/hardware/arduino/cores/arduino'
p9
aS'-ffunction-sections'
p10
aS'-fdata-sections'
p11
aS'-g'
p12
aS'-Os'
p13
aS'-w'
p14
aS'-I/usr/share/arduino/hardware/arduino/variants/standard'
p15
aS'-Ilib/LiquidCrystal595'
p16
aS'-I/usr/share/arduino/libraries/Wire'
p17
aS'-I/usr/share/arduino/libraries/Wire/utility'
p18
aS'-I/usr/share/arduino/hardware/arduino/cores/arduino'
p19
atp20
Rp21
tp22
a(S'cxx'
p23
S'/usr/bin/avr-g++'
p24
tp25
a(S'arduino_libraries_dir'
p26
S'/usr/share/arduino/libraries'
p27
tp28
a(S'avrdude'
p29
S'/usr/share/arduino/hardware/tools/avrdude'
p30
tp31
a(S'ar'
p32
S'/usr/bin/avr-ar'
p33
tp34
a(S'names'
p35
(dp36
S'cpp'
p37
S'%s.cpp'
p38
sS'obj'
p39
S'%s.o'
p40
sS'deps'
p41
S'%s.d'
p42
sS'lib'
p43
S'lib%s.a'
p44
stp45
a(S'ldflags'
p46
g2
(g3
g4
(lp47
g6
aS'-Wl,-Os'
p48
aS'-Wl,--gc-sections'
p49
atp50
Rp51
tp52
a(S'arduino_lib_version'
p53
g2
(cino.environment
Version
p54
c__builtin__
tuple
p55
(I1
I0
I1
tp56
tp57
Rp58
tp59
a(S'objcopy'
p60
S'/usr/bin/avr-objcopy'
p61
tp62
a(S'board_models'
p63
cino.environment
BoardModels
p64
((lp65
(lp66
S'uno'
p67
a(dp68
S'bootloader'
p69
(dp70
S'extended_fuses'
p71
S'0x05'
p72
sS'high_fuses'
p73
S'0xde'
p74
sS'low_fuses'
p75
S'0xff'
p76
sS'lock_bits'
p77
S'0x0F'
p78
sS'file'
p79
S'optiboot_atmega328.hex'
p80
sS'path'
p81
S'optiboot'
p82
sS'unlock_bits'
p83
S'0x3F'
p84
ssS'upload'
p85
(dp86
S'protocol'
p87
S'arduino'
p88
sS'maximum_size'
p89
S'32256'
p90
sS'speed'
p91
S'115200'
p92
ssS'build'
p93
(dp94
S'core'
p95
S'arduino'
p96
sS'mcu'
p97
S'atmega328p'
p98
sS'f_cpu'
p99
S'16000000L'
p100
sS'variant'
p101
S'standard'
p102
ssS'name'
p103
S'Arduino Uno'
p104
saa(lp105
S'atmega328'
p106
a(dp107
S'bootloader'
p108
(dp109
S'extended_fuses'
p110
S'0x05'
p111
sS'high_fuses'
p112
S'0xDA'
p113
sS'low_fuses'
p114
S'0xFF'
p115
sS'lock_bits'
p116
S'0x0F'
p117
sS'file'
p118
S'ATmegaBOOT_168_atmega328.hex'
p119
sS'path'
p120
S'atmega'
p121
sS'unlock_bits'
p122
S'0x3F'
p123
ssS'upload'
p124
(dp125
S'protocol'
p126
S'arduino'
p127
sS'maximum_size'
p128
S'30720'
p129
sS'speed'
p130
S'57600'
p131
ssS'build'
p132
(dp133
S'core'
p134
S'arduino'
p135
sS'mcu'
p136
S'atmega328p'
p137
sS'f_cpu'
p138
S'16000000L'
p139
sS'variant'
p140
S'standard'
p141
ssS'name'
p142
S'Arduino Duemilanove w/ ATmega328'
p143
saa(lp144
S'diecimila'
p145
a(dp146
S'bootloader'
p147
(dp148
S'extended_fuses'
p149
S'0x00'
p150
sS'high_fuses'
p151
S'0xdd'
p152
sS'low_fuses'
p153
S'0xff'
p154
sS'lock_bits'
p155
S'0x0F'
p156
sS'file'
p157
S'ATmegaBOOT_168_diecimila.hex'
p158
sS'path'
p159
S'atmega'
p160
sS'unlock_bits'
p161
S'0x3F'
p162
ssS'upload'
p163
(dp164
S'protocol'
p165
S'arduino'
p166
sS'maximum_size'
p167
S'14336'
p168
sS'speed'
p169
S'19200'
p170
ssS'build'
p171
(dp172
S'core'
p173
S'arduino'
p174
sS'mcu'
p175
S'atmega168'
p176
sS'f_cpu'
p177
S'16000000L'
p178
sS'variant'
p179
S'standard'
p180
ssS'name'
p181
S'Arduino Diecimila or Duemilanove w/ ATmega168'
p182
saa(lp183
S'nano328'
p184
a(dp185
S'bootloader'
p186
(dp187
S'extended_fuses'
p188
S'0x05'
p189
sS'high_fuses'
p190
S'0xDA'
p191
sS'low_fuses'
p192
S'0xFF'
p193
sS'lock_bits'
p194
S'0x0F'
p195
sS'file'
p196
S'ATmegaBOOT_168_atmega328.hex'
p197
sS'path'
p198
S'atmega'
p199
sS'unlock_bits'
p200
S'0x3F'
p201
ssS'upload'
p202
(dp203
S'protocol'
p204
S'arduino'
p205
sS'maximum_size'
p206
S'30720'
p207
sS'speed'
p208
S'57600'
p209
ssS'build'
p210
(dp211
S'core'
p212
S'arduino'
p213
sS'mcu'
p214
S'atmega328p'
p215
sS'f_cpu'
p216
S'16000000L'
p217
sS'variant'
p218
S'eightanaloginputs'
p219
ssS'name'
p220
S'Arduino Nano w/ ATmega328'
p221
saa(lp222
S'nano'
p223
a(dp224
S'bootloader'
p225
(dp226
S'extended_fuses'
p227
S'0x00'
p228
sS'high_fuses'
p229
S'0xdd'
p230
sS'low_fuses'
p231
S'0xff'
p232
sS'lock_bits'
p233
S'0x0F'
p234
sS'file'
p235
S'ATmegaBOOT_168_diecimila.hex'
p236
sS'path'
p237
S'atmega'
p238
sS'unlock_bits'
p239
S'0x3F'
p240
ssS'upload'
p241
(dp242
S'protocol'
p243
S'arduino'
p244
sS'maximum_size'
p245
S'14336'
p246
sS'speed'
p247
S'19200'
p248
ssS'build'
p249
(dp250
S'core'
p251
S'arduino'
p252
sS'mcu'
p253
S'atmega168'
p254
sS'f_cpu'
p255
S'16000000L'
p256
sS'variant'
p257
S'eightanaloginputs'
p258
ssS'name'
p259
S'Arduino Nano w/ ATmega168'
p260
saa(lp261
S'mega2560'
p262
a(dp263
S'bootloader'
p264
(dp265
S'extended_fuses'
p266
S'0xFD'
p267
sS'high_fuses'
p268
S'0xD8'
p269
sS'low_fuses'
p270
S'0xFF'
p271
sS'lock_bits'
p272
S'0x0F'
p273
sS'file'
p274
S'stk500boot_v2_mega2560.hex'
p275
sS'path'
p276
S'stk500v2'
p277
sS'unlock_bits'
p278
S'0x3F'
p279
ssS'upload'
p280
(dp281
S'protocol'
p282
S'stk500v2'
p283
sS'maximum_size'
p284
S'258048'
p285
sS'speed'
p286
S'115200'
p287
ssS'build'
p288
(dp289
S'core'
p290
S'arduino'
p291
sS'mcu'
p292
S'atmega2560'
p293
sS'f_cpu'
p294
S'16000000L'
p295
sS'variant'
p296
S'mega'
p297
ssS'name'
p298
S'Arduino Mega 2560 or Mega ADK'
p299
saa(lp300
S'mega'
p301
a(dp302
S'bootloader'
p303
(dp304
S'extended_fuses'
p305
S'0xF5'
p306
sS'high_fuses'
p307
S'0xDA'
p308
sS'low_fuses'
p309
S'0xFF'
p310
sS'lock_bits'
p311
S'0x0F'
p312
sS'file'
p313
S'ATmegaBOOT_168_atmega1280.hex'
p314
sS'path'
p315
S'atmega'
p316
sS'unlock_bits'
p317
S'0x3F'
p318
ssS'upload'
p319
(dp320
S'protocol'
p321
S'arduino'
p322
sS'maximum_size'
p323
S'126976'
p324
sS'speed'
p325
S'57600'
p326
ssS'build'
p327
(dp328
S'core'
p329
S'arduino'
p330
sS'mcu'
p331
S'atmega1280'
p332
sS'f_cpu'
p333
S'16000000L'
p334
sS'variant'
p335
S'mega'
p336
ssS'name'
p337
S'Arduino Mega (ATmega1280)'
p338
saa(lp339
S'leonardo'
p340
a(dp341
S'bootloader'
p342
(dp343
S'extended_fuses'
p344
S'0xcb'
p345
sS'high_fuses'
p346
S'0xd8'
p347
sS'low_fuses'
p348
S'0xff'
p349
sS'lock_bits'
p350
S'0x2F'
p351
sS'file'
p352
S'Caterina-Leonardo.hex'
p353
sS'path'
p354
S'caterina'
p355
sS'unlock_bits'
p356
S'0x3F'
p357
ssS'upload'
p358
(dp359
S'protocol'
p360
S'avr109'
p361
sS'maximum_size'
p362
S'28672'
p363
sS'speed'
p364
S'57600'
p365
sS'disable_flushing'
p366
S'true'
p367
ssS'build'
p368
(dp369
S'core'
p370
S'arduino'
p371
sS'f_cpu'
p372
S'16000000L'
p373
sS'vid'
p374
S'0x2341'
p375
sS'pid'
p376
S'0x8036'
p377
sS'variant'
p378
S'leonardo'
p379
sS'mcu'
p380
S'atmega32u4'
p381
ssS'name'
p382
S'Arduino Leonardo'
p383
saa(lp384
S'mini328'
p385
a(dp386
S'bootloader'
p387
(dp388
S'extended_fuses'
p389
S'0x05'
p390
sS'high_fuses'
p391
S'0xd8'
p392
sS'low_fuses'
p393
S'0xff'
p394
sS'lock_bits'
p395
S'0x0F'
p396
sS'file'
p397
S'optiboot_atmega328-Mini.hex'
p398
sS'path'
p399
S'optiboot'
p400
sS'unlock_bits'
p401
S'0x3F'
p402
ssS'upload'
p403
(dp404
S'protocol'
p405
S'arduino'
p406
sS'maximum_size'
p407
S'28672'
p408
sS'speed'
p409
S'115200'
p410
ssS'build'
p411
(dp412
S'core'
p413
S'arduino'
p414
sS'mcu'
p415
S'atmega328p'
p416
sS'f_cpu'
p417
S'16000000L'
p418
sS'variant'
p419
S'eightanaloginputs'
p420
ssS'name'
p421
S'Arduino Mini w/ ATmega328'
p422
saa(lp423
S'mini'
p424
a(dp425
S'bootloader'
p426
(dp427
S'extended_fuses'
p428
S'0x00'
p429
sS'high_fuses'
p430
S'0xdd'
p431
sS'low_fuses'
p432
S'0xff'
p433
sS'lock_bits'
p434
S'0x0F'
p435
sS'file'
p436
S'ATmegaBOOT_168_ng.hex'
p437
sS'path'
p438
S'atmega'
p439
sS'unlock_bits'
p440
S'0x3F'
p441
ssS'upload'
p442
(dp443
S'protocol'
p444
S'arduino'
p445
sS'maximum_size'
p446
S'14336'
p447
sS'speed'
p448
S'19200'
p449
ssS'build'
p450
(dp451
S'core'
p452
S'arduino'
p453
sS'mcu'
p454
S'atmega168'
p455
sS'f_cpu'
p456
S'16000000L'
p457
sS'variant'
p458
S'eightanaloginputs'
p459
ssS'name'
p460
S'Arduino Mini w/ ATmega168'
p461
saa(lp462
S'ethernet'
p463
a(dp464
S'bootloader'
p465
(dp466
S'extended_fuses'
p467
S'0x05'
p468
sS'high_fuses'
p469
S'0xde'
p470
sS'low_fuses'
p471
S'0xff'
p472
sS'lock_bits'
p473
S'0x0F'
p474
sS'file'
p475
S'optiboot_atmega328.hex'
p476
sS'path'
p477
S'optiboot'
p478
sS'unlock_bits'
p479
S'0x3F'
p480
ssS'upload'
p481
(dp482
S'protocol'
p483
S'arduino'
p484
sS'maximum_size'
p485
S'32256'
p486
sS'speed'
p487
S'115200'
p488
ssS'build'
p489
(dp490
S'variant'
p491
S'standard'
p492
sS'mcu'
p493
S'atmega328p'
p494
sS'f_cpu'
p495
S'16000000L'
p496
sS'core'
p497
S'arduino'
p498
ssS'name'
p499
S'Arduino Ethernet'
p500
saa(lp501
S'fio'
p502
a(dp503
S'bootloader'
p504
(dp505
S'extended_fuses'
p506
S'0x05'
p507
sS'high_fuses'
p508
S'0xDA'
p509
sS'low_fuses'
p510
S'0xFF'
p511
sS'lock_bits'
p512
S'0x0F'
p513
sS'file'
p514
S'ATmegaBOOT_168_atmega328_pro_8MHz.hex'
p515
sS'path'
p516
S'arduino:atmega'
p517
sS'unlock_bits'
p518
S'0x3F'
p519
ssS'upload'
p520
(dp521
S'protocol'
p522
S'arduino'
p523
sS'maximum_size'
p524
S'30720'
p525
sS'speed'
p526
S'57600'
p527
ssS'build'
p528
(dp529
S'core'
p530
S'arduino'
p531
sS'mcu'
p532
S'atmega328p'
p533
sS'f_cpu'
p534
S'8000000L'
p535
sS'variant'
p536
S'eightanaloginputs'
p537
ssS'name'
p538
S'Arduino Fio'
p539
saa(lp540
S'bt328'
p541
a(dp542
S'bootloader'
p543
(dp544
S'extended_fuses'
p545
S'0x05'
p546
sS'high_fuses'
p547
S'0xd8'
p548
sS'low_fuses'
p549
S'0xff'
p550
sS'lock_bits'
p551
S'0x0F'
p552
sS'file'
p553
S'ATmegaBOOT_168_atmega328_bt.hex'
p554
sS'path'
p555
S'bt'
p556
sS'unlock_bits'
p557
S'0x3F'
p558
ssS'upload'
p559
(dp560
S'protocol'
p561
S'arduino'
p562
sS'maximum_size'
p563
S'28672'
p564
sS'speed'
p565
S'19200'
p566
sS'disable_flushing'
p567
S'true'
p568
ssS'build'
p569
(dp570
S'core'
p571
S'arduino'
p572
sS'mcu'
p573
S'atmega328p'
p574
sS'f_cpu'
p575
S'16000000L'
p576
sS'variant'
p577
S'eightanaloginputs'
p578
ssS'name'
p579
S'Arduino BT w/ ATmega328'
p580
saa(lp581
S'bt'
p582
a(dp583
S'bootloader'
p584
(dp585
S'extended_fuses'
p586
S'0x00'
p587
sS'high_fuses'
p588
S'0xdd'
p589
sS'low_fuses'
p590
S'0xff'
p591
sS'lock_bits'
p592
S'0x0F'
p593
sS'file'
p594
S'ATmegaBOOT_168.hex'
p595
sS'path'
p596
S'bt'
p597
sS'unlock_bits'
p598
S'0x3F'
p599
ssS'upload'
p600
(dp601
S'protocol'
p602
S'arduino'
p603
sS'maximum_size'
p604
S'14336'
p605
sS'speed'
p606
S'19200'
p607
sS'disable_flushing'
p608
S'true'
p609
ssS'build'
p610
(dp611
S'core'
p612
S'arduino'
p613
sS'mcu'
p614
S'atmega168'
p615
sS'f_cpu'
p616
S'16000000L'
p617
sS'variant'
p618
S'eightanaloginputs'
p619
ssS'name'
p620
S'Arduino BT w/ ATmega168'
p621
saa(lp622
S'lilypad328'
p623
a(dp624
S'bootloader'
p625
(dp626
S'extended_fuses'
p627
S'0x05'
p628
sS'high_fuses'
p629
S'0xDA'
p630
sS'low_fuses'
p631
S'0xFF'
p632
sS'lock_bits'
p633
S'0x0F'
p634
sS'file'
p635
S'ATmegaBOOT_168_atmega328_pro_8MHz.hex'
p636
sS'path'
p637
S'atmega'
p638
sS'unlock_bits'
p639
S'0x3F'
p640
ssS'upload'
p641
(dp642
S'protocol'
p643
S'arduino'
p644
sS'maximum_size'
p645
S'30720'
p646
sS'speed'
p647
S'57600'
p648
ssS'build'
p649
(dp650
S'core'
p651
S'arduino'
p652
sS'mcu'
p653
S'atmega328p'
p654
sS'f_cpu'
p655
S'8000000L'
p656
sS'variant'
p657
S'standard'
p658
ssS'name'
p659
S'LilyPad Arduino w/ ATmega328'
p660
saa(lp661
S'lilypad'
p662
a(dp663
S'bootloader'
p664
(dp665
S'extended_fuses'
p666
S'0x00'
p667
sS'high_fuses'
p668
S'0xdd'
p669
sS'low_fuses'
p670
S'0xe2'
p671
sS'lock_bits'
p672
S'0x0F'
p673
sS'file'
p674
S'LilyPadBOOT_168.hex'
p675
sS'path'
p676
S'lilypad'
p677
sS'unlock_bits'
p678
S'0x3F'
p679
ssS'upload'
p680
(dp681
S'protocol'
p682
S'arduino'
p683
sS'maximum_size'
p684
S'14336'
p685
sS'speed'
p686
S'19200'
p687
ssS'build'
p688
(dp689
S'core'
p690
S'arduino'
p691
sS'mcu'
p692
S'atmega168'
p693
sS'f_cpu'
p694
S'8000000L'
p695
sS'variant'
p696
S'standard'
p697
ssS'name'
p698
S'LilyPad Arduino w/ ATmega168'
p699
saa(lp700
S'pro5v328'
p701
a(dp702
S'bootloader'
p703
(dp704
S'extended_fuses'
p705
S'0x05'
p706
sS'high_fuses'
p707
S'0xDA'
p708
sS'low_fuses'
p709
S'0xFF'
p710
sS'lock_bits'
p711
S'0x0F'
p712
sS'file'
p713
S'ATmegaBOOT_168_atmega328.hex'
p714
sS'path'
p715
S'atmega'
p716
sS'unlock_bits'
p717
S'0x3F'
p718
ssS'upload'
p719
(dp720
S'protocol'
p721
S'arduino'
p722
sS'maximum_size'
p723
S'30720'
p724
sS'speed'
p725
S'57600'
p726
ssS'build'
p727
(dp728
S'core'
p729
S'arduino'
p730
sS'mcu'
p731
S'atmega328p'
p732
sS'f_cpu'
p733
S'16000000L'
p734
sS'variant'
p735
S'standard'
p736
ssS'name'
p737
S'Arduino Pro or Pro Mini (5V, 16 MHz) w/ ATmega328'
p738
saa(lp739
S'pro5v'
p740
a(dp741
S'bootloader'
p742
(dp743
S'extended_fuses'
p744
S'0x00'
p745
sS'high_fuses'
p746
S'0xdd'
p747
sS'low_fuses'
p748
S'0xff'
p749
sS'lock_bits'
p750
S'0x0F'
p751
sS'file'
p752
S'ATmegaBOOT_168_diecimila.hex'
p753
sS'path'
p754
S'atmega'
p755
sS'unlock_bits'
p756
S'0x3F'
p757
ssS'upload'
p758
(dp759
S'protocol'
p760
S'arduino'
p761
sS'maximum_size'
p762
S'14336'
p763
sS'speed'
p764
S'19200'
p765
ssS'build'
p766
(dp767
S'core'
p768
S'arduino'
p769
sS'mcu'
p770
S'atmega168'
p771
sS'f_cpu'
p772
S'16000000L'
p773
sS'variant'
p774
S'standard'
p775
ssS'name'
p776
S'Arduino Pro or Pro Mini (5V, 16 MHz) w/ ATmega168'
p777
saa(lp778
S'pro328'
p779
a(dp780
S'bootloader'
p781
(dp782
S'extended_fuses'
p783
S'0x05'
p784
sS'high_fuses'
p785
S'0xDA'
p786
sS'low_fuses'
p787
S'0xFF'
p788
sS'lock_bits'
p789
S'0x0F'
p790
sS'file'
p791
S'ATmegaBOOT_168_atmega328_pro_8MHz.hex'
p792
sS'path'
p793
S'atmega'
p794
sS'unlock_bits'
p795
S'0x3F'
p796
ssS'upload'
p797
(dp798
S'protocol'
p799
S'arduino'
p800
sS'maximum_size'
p801
S'30720'
p802
sS'speed'
p803
S'57600'
p804
ssS'build'
p805
(dp806
S'core'
p807
S'arduino'
p808
sS'mcu'
p809
S'atmega328p'
p810
sS'f_cpu'
p811
S'8000000L'
p812
sS'variant'
p813
S'standard'
p814
ssS'name'
p815
S'Arduino Pro or Pro Mini (3.3V, 8 MHz) w/ ATmega328'
p816
saa(lp817
S'pro'
p818
a(dp819
S'bootloader'
p820
(dp821
S'extended_fuses'
p822
S'0x00'
p823
sS'high_fuses'
p824
S'0xdd'
p825
sS'low_fuses'
p826
S'0xc6'
p827
sS'lock_bits'
p828
S'0x0F'
p829
sS'file'
p830
S'ATmegaBOOT_168_pro_8MHz.hex'
p831
sS'path'
p832
S'atmega'
p833
sS'unlock_bits'
p834
S'0x3F'
p835
ssS'upload'
p836
(dp837
S'protocol'
p838
S'arduino'
p839
sS'maximum_size'
p840
S'14336'
p841
sS'speed'
p842
S'19200'
p843
ssS'build'
p844
(dp845
S'core'
p846
S'arduino'
p847
sS'mcu'
p848
S'atmega168'
p849
sS'f_cpu'
p850
S'8000000L'
p851
sS'variant'
p852
S'standard'
p853
ssS'name'
p854
S'Arduino Pro or Pro Mini (3.3V, 8 MHz) w/ ATmega168'
p855
saa(lp856
S'atmega168'
p857
a(dp858
S'bootloader'
p859
(dp860
S'extended_fuses'
p861
S'0x00'
p862
sS'high_fuses'
p863
S'0xdd'
p864
sS'low_fuses'
p865
S'0xff'
p866
sS'lock_bits'
p867
S'0x0F'
p868
sS'file'
p869
S'ATmegaBOOT_168_ng.hex'
p870
sS'path'
p871
S'atmega'
p872
sS'unlock_bits'
p873
S'0x3F'
p874
ssS'upload'
p875
(dp876
S'protocol'
p877
S'arduino'
p878
sS'maximum_size'
p879
S'14336'
p880
sS'speed'
p881
S'19200'
p882
ssS'build'
p883
(dp884
S'core'
p885
S'arduino'
p886
sS'mcu'
p887
S'atmega168'
p888
sS'f_cpu'
p889
S'16000000L'
p890
sS'variant'
p891
S'standard'
p892
ssS'name'
p893
S'Arduino NG or older w/ ATmega168'
p894
saa(lp895
S'atmega8'
p896
a(dp897
S'bootloader'
p898
(dp899
S'high_fuses'
p900
S'0xca'
p901
sS'low_fuses'
p902
S'0xdf'
p903
sS'lock_bits'
p904
S'0x0F'
p905
sS'file'
p906
S'ATmegaBOOT.hex'
p907
sS'path'
p908
S'atmega8'
p909
sS'unlock_bits'
p910
S'0x3F'
p911
ssS'upload'
p912
(dp913
S'protocol'
p914
S'arduino'
p915
sS'maximum_size'
p916
S'7168'
p917
sS'speed'
p918
S'19200'
p919
ssS'build'
p920
(dp921
S'core'
p922
S'arduino'
p923
sS'mcu'
p924
S'atmega8'
p925
sS'f_cpu'
p926
S'16000000L'
p927
sS'variant'
p928
S'standard'
p929
ssS'name'
p930
S'Arduino NG or older w/ ATmega8'
p931
saatp932
Rp933
(dp934
S'default'
p935
S'uno'
p936
sbtp937
a(S'used_libs'
p938
(lp939
S'lib/LiquidCrystal595'
p940
aS'/usr/share/arduino/libraries/Wire'
p941
aS'/usr/share/arduino/hardware/arduino/cores/arduino'
p942
atp943
a(S'make'
p944
S'/usr/bin/make'
p945
tp946
a(S'build_dir'
p947
S'.build/uno'
p948
tp949
a(S'cc'
p950
S'/usr/bin/avr-gcc'
p951
tp952
a(S'cflags'
p953
g2
(g3
g4
(lp954
tp955
Rp956
tp957
a(S'cxxflags'
p958
g2
(g3
g4
(lp959
S'-fno-exceptions'
p960
atp961
Rp962
tp963
a(S'arduino_variants_dir'
p964
S'/usr/share/arduino/hardware/arduino/variants'
p965
tp966
a(S'serial'
p967
S'/usr/bin/picocom'
p968
tp969
a(S'stty'
p970
S'/bin/stty'
p971
tp972
a(S'version.txt'
p973
S'/usr/share/arduino/lib/version.txt'
p974
tp975
a(S'arduino_core_dir'
p976
g942
tp977
a(S'boards.txt'
p978
S'/usr/share/arduino/hardware/arduino/boards.txt'
p979
tp980
a(S'avrdude.conf'
p981
S'/usr/share/arduino/hardware/tools/avrdude.conf'
p982
tp983
a(S'deps'
p984
g2
(g3
g4
(lp985
S'.build/uno/src/dependencies.d'
p986
aS'.build/uno/arduino/dependencies.d'
p987
aS'.build/uno/LiquidCrystal595/dependencies.d'
p988
aS'.build/uno/Wire/dependencies.d'
p989
atp990
Rp991
tp992
a.