(lp0
(S'cppflags'
p1
ccopy_reg
_reconstructor
p2
(cino.utils
SpaceList
p3
c__builtin__
list
p4
(lp5
S'-mmcu=atmega328p'
p6
aS'-DF_CPU=16000000L'
p7
aS'-DARDUINO=101'
p8
aS'-I/usr/share/arduino/hardware/arduino/cores/arduino'
p9
aS'-ffunction-sections'
p10
aS'-fdata-sections'
p11
aS'-g'
p12
aS'-Os'
p13
aS'-w'
p14
aS'-I/usr/share/arduino/hardware/arduino/variants/standard'
p15
aS'-Ilib/LiquidCrystal595'
p16
aS'-I/usr/share/arduino/libraries/Wire'
p17
aS'-I/usr/share/arduino/libraries/Wire/utility'
p18
aS'-I/usr/share/arduino/libraries/LiquidCrystal595'
p19
aS'-I/usr/share/arduino/hardware/arduino/cores/arduino'
p20
atp21
Rp22
tp23
a(S'cxx'
p24
S'/usr/bin/avr-g++'
p25
tp26
a(S'build_dir'
p27
S'.build/uno'
p28
tp29
a(S'avrdude'
p30
S'/usr/share/arduino/hardware/tools/avrdude'
p31
tp32
a(S'ar'
p33
S'/usr/bin/avr-ar'
p34
tp35
a(S'names'
p36
(dp37
S'cpp'
p38
S'%s.cpp'
p39
sS'obj'
p40
S'%s.o'
p41
sS'lib'
p42
S'lib%s.a'
p43
sS'deps'
p44
S'%s.d'
p45
stp46
a(S'ldflags'
p47
g2
(g3
g4
(lp48
g6
aS'-Wl,-Os'
p49
aS'-Wl,--gc-sections'
p50
atp51
Rp52
tp53
a(S'arduino_lib_version'
p54
g2
(cino.environment
Version
p55
c__builtin__
tuple
p56
(I1
I0
I1
tp57
tp58
Rp59
tp60
a(S'objcopy'
p61
S'/usr/bin/avr-objcopy'
p62
tp63
a(S'board_models'
p64
cino.environment
BoardModels
p65
((lp66
(lp67
S'uno'
p68
a(dp69
S'bootloader'
p70
(dp71
S'extended_fuses'
p72
S'0x05'
p73
sS'high_fuses'
p74
S'0xde'
p75
sS'low_fuses'
p76
S'0xff'
p77
sS'lock_bits'
p78
S'0x0F'
p79
sS'file'
p80
S'optiboot_atmega328.hex'
p81
sS'path'
p82
S'optiboot'
p83
sS'unlock_bits'
p84
S'0x3F'
p85
ssS'upload'
p86
(dp87
S'protocol'
p88
S'arduino'
p89
sS'maximum_size'
p90
S'32256'
p91
sS'speed'
p92
S'115200'
p93
ssS'build'
p94
(dp95
S'core'
p96
S'arduino'
p97
sS'mcu'
p98
S'atmega328p'
p99
sS'f_cpu'
p100
S'16000000L'
p101
sS'variant'
p102
S'standard'
p103
ssS'name'
p104
S'Arduino Uno'
p105
saa(lp106
S'atmega328'
p107
a(dp108
S'bootloader'
p109
(dp110
S'extended_fuses'
p111
S'0x05'
p112
sS'high_fuses'
p113
S'0xDA'
p114
sS'low_fuses'
p115
S'0xFF'
p116
sS'lock_bits'
p117
S'0x0F'
p118
sS'file'
p119
S'ATmegaBOOT_168_atmega328.hex'
p120
sS'path'
p121
S'atmega'
p122
sS'unlock_bits'
p123
S'0x3F'
p124
ssS'upload'
p125
(dp126
S'protocol'
p127
S'arduino'
p128
sS'maximum_size'
p129
S'30720'
p130
sS'speed'
p131
S'57600'
p132
ssS'build'
p133
(dp134
S'core'
p135
S'arduino'
p136
sS'mcu'
p137
S'atmega328p'
p138
sS'f_cpu'
p139
S'16000000L'
p140
sS'variant'
p141
S'standard'
p142
ssS'name'
p143
S'Arduino Duemilanove w/ ATmega328'
p144
saa(lp145
S'diecimila'
p146
a(dp147
S'bootloader'
p148
(dp149
S'extended_fuses'
p150
S'0x00'
p151
sS'high_fuses'
p152
S'0xdd'
p153
sS'low_fuses'
p154
S'0xff'
p155
sS'lock_bits'
p156
S'0x0F'
p157
sS'file'
p158
S'ATmegaBOOT_168_diecimila.hex'
p159
sS'path'
p160
S'atmega'
p161
sS'unlock_bits'
p162
S'0x3F'
p163
ssS'upload'
p164
(dp165
S'protocol'
p166
S'arduino'
p167
sS'maximum_size'
p168
S'14336'
p169
sS'speed'
p170
S'19200'
p171
ssS'build'
p172
(dp173
S'core'
p174
S'arduino'
p175
sS'mcu'
p176
S'atmega168'
p177
sS'f_cpu'
p178
S'16000000L'
p179
sS'variant'
p180
S'standard'
p181
ssS'name'
p182
S'Arduino Diecimila or Duemilanove w/ ATmega168'
p183
saa(lp184
S'nano328'
p185
a(dp186
S'bootloader'
p187
(dp188
S'extended_fuses'
p189
S'0x05'
p190
sS'high_fuses'
p191
S'0xDA'
p192
sS'low_fuses'
p193
S'0xFF'
p194
sS'lock_bits'
p195
S'0x0F'
p196
sS'file'
p197
S'ATmegaBOOT_168_atmega328.hex'
p198
sS'path'
p199
S'atmega'
p200
sS'unlock_bits'
p201
S'0x3F'
p202
ssS'upload'
p203
(dp204
S'protocol'
p205
S'arduino'
p206
sS'maximum_size'
p207
S'30720'
p208
sS'speed'
p209
S'57600'
p210
ssS'build'
p211
(dp212
S'core'
p213
S'arduino'
p214
sS'mcu'
p215
S'atmega328p'
p216
sS'f_cpu'
p217
S'16000000L'
p218
sS'variant'
p219
S'eightanaloginputs'
p220
ssS'name'
p221
S'Arduino Nano w/ ATmega328'
p222
saa(lp223
S'nano'
p224
a(dp225
S'bootloader'
p226
(dp227
S'extended_fuses'
p228
S'0x00'
p229
sS'high_fuses'
p230
S'0xdd'
p231
sS'low_fuses'
p232
S'0xff'
p233
sS'lock_bits'
p234
S'0x0F'
p235
sS'file'
p236
S'ATmegaBOOT_168_diecimila.hex'
p237
sS'path'
p238
S'atmega'
p239
sS'unlock_bits'
p240
S'0x3F'
p241
ssS'upload'
p242
(dp243
S'protocol'
p244
S'arduino'
p245
sS'maximum_size'
p246
S'14336'
p247
sS'speed'
p248
S'19200'
p249
ssS'build'
p250
(dp251
S'core'
p252
S'arduino'
p253
sS'mcu'
p254
S'atmega168'
p255
sS'f_cpu'
p256
S'16000000L'
p257
sS'variant'
p258
S'eightanaloginputs'
p259
ssS'name'
p260
S'Arduino Nano w/ ATmega168'
p261
saa(lp262
S'mega2560'
p263
a(dp264
S'bootloader'
p265
(dp266
S'extended_fuses'
p267
S'0xFD'
p268
sS'high_fuses'
p269
S'0xD8'
p270
sS'low_fuses'
p271
S'0xFF'
p272
sS'lock_bits'
p273
S'0x0F'
p274
sS'file'
p275
S'stk500boot_v2_mega2560.hex'
p276
sS'path'
p277
S'stk500v2'
p278
sS'unlock_bits'
p279
S'0x3F'
p280
ssS'upload'
p281
(dp282
S'protocol'
p283
S'stk500v2'
p284
sS'maximum_size'
p285
S'258048'
p286
sS'speed'
p287
S'115200'
p288
ssS'build'
p289
(dp290
S'core'
p291
S'arduino'
p292
sS'mcu'
p293
S'atmega2560'
p294
sS'f_cpu'
p295
S'16000000L'
p296
sS'variant'
p297
S'mega'
p298
ssS'name'
p299
S'Arduino Mega 2560 or Mega ADK'
p300
saa(lp301
S'mega'
p302
a(dp303
S'bootloader'
p304
(dp305
S'extended_fuses'
p306
S'0xF5'
p307
sS'high_fuses'
p308
S'0xDA'
p309
sS'low_fuses'
p310
S'0xFF'
p311
sS'lock_bits'
p312
S'0x0F'
p313
sS'file'
p314
S'ATmegaBOOT_168_atmega1280.hex'
p315
sS'path'
p316
S'atmega'
p317
sS'unlock_bits'
p318
S'0x3F'
p319
ssS'upload'
p320
(dp321
S'protocol'
p322
S'arduino'
p323
sS'maximum_size'
p324
S'126976'
p325
sS'speed'
p326
S'57600'
p327
ssS'build'
p328
(dp329
S'core'
p330
S'arduino'
p331
sS'mcu'
p332
S'atmega1280'
p333
sS'f_cpu'
p334
S'16000000L'
p335
sS'variant'
p336
S'mega'
p337
ssS'name'
p338
S'Arduino Mega (ATmega1280)'
p339
saa(lp340
S'leonardo'
p341
a(dp342
S'bootloader'
p343
(dp344
S'extended_fuses'
p345
S'0xcb'
p346
sS'high_fuses'
p347
S'0xd8'
p348
sS'low_fuses'
p349
S'0xff'
p350
sS'lock_bits'
p351
S'0x2F'
p352
sS'file'
p353
S'Caterina-Leonardo.hex'
p354
sS'path'
p355
S'caterina'
p356
sS'unlock_bits'
p357
S'0x3F'
p358
ssS'upload'
p359
(dp360
S'protocol'
p361
S'avr109'
p362
sS'maximum_size'
p363
S'28672'
p364
sS'speed'
p365
S'57600'
p366
sS'disable_flushing'
p367
S'true'
p368
ssS'build'
p369
(dp370
S'core'
p371
S'arduino'
p372
sS'f_cpu'
p373
S'16000000L'
p374
sS'vid'
p375
S'0x2341'
p376
sS'pid'
p377
S'0x8036'
p378
sS'variant'
p379
S'leonardo'
p380
sS'mcu'
p381
S'atmega32u4'
p382
ssS'name'
p383
S'Arduino Leonardo'
p384
saa(lp385
S'mini328'
p386
a(dp387
S'bootloader'
p388
(dp389
S'extended_fuses'
p390
S'0x05'
p391
sS'high_fuses'
p392
S'0xd8'
p393
sS'low_fuses'
p394
S'0xff'
p395
sS'lock_bits'
p396
S'0x0F'
p397
sS'file'
p398
S'optiboot_atmega328-Mini.hex'
p399
sS'path'
p400
S'optiboot'
p401
sS'unlock_bits'
p402
S'0x3F'
p403
ssS'upload'
p404
(dp405
S'protocol'
p406
S'arduino'
p407
sS'maximum_size'
p408
S'28672'
p409
sS'speed'
p410
S'115200'
p411
ssS'build'
p412
(dp413
S'core'
p414
S'arduino'
p415
sS'mcu'
p416
S'atmega328p'
p417
sS'f_cpu'
p418
S'16000000L'
p419
sS'variant'
p420
S'eightanaloginputs'
p421
ssS'name'
p422
S'Arduino Mini w/ ATmega328'
p423
saa(lp424
S'mini'
p425
a(dp426
S'bootloader'
p427
(dp428
S'extended_fuses'
p429
S'0x00'
p430
sS'high_fuses'
p431
S'0xdd'
p432
sS'low_fuses'
p433
S'0xff'
p434
sS'lock_bits'
p435
S'0x0F'
p436
sS'file'
p437
S'ATmegaBOOT_168_ng.hex'
p438
sS'path'
p439
S'atmega'
p440
sS'unlock_bits'
p441
S'0x3F'
p442
ssS'upload'
p443
(dp444
S'protocol'
p445
S'arduino'
p446
sS'maximum_size'
p447
S'14336'
p448
sS'speed'
p449
S'19200'
p450
ssS'build'
p451
(dp452
S'core'
p453
S'arduino'
p454
sS'mcu'
p455
S'atmega168'
p456
sS'f_cpu'
p457
S'16000000L'
p458
sS'variant'
p459
S'eightanaloginputs'
p460
ssS'name'
p461
S'Arduino Mini w/ ATmega168'
p462
saa(lp463
S'ethernet'
p464
a(dp465
S'bootloader'
p466
(dp467
S'extended_fuses'
p468
S'0x05'
p469
sS'high_fuses'
p470
S'0xde'
p471
sS'low_fuses'
p472
S'0xff'
p473
sS'lock_bits'
p474
S'0x0F'
p475
sS'file'
p476
S'optiboot_atmega328.hex'
p477
sS'path'
p478
S'optiboot'
p479
sS'unlock_bits'
p480
S'0x3F'
p481
ssS'upload'
p482
(dp483
S'protocol'
p484
S'arduino'
p485
sS'maximum_size'
p486
S'32256'
p487
sS'speed'
p488
S'115200'
p489
ssS'build'
p490
(dp491
S'variant'
p492
S'standard'
p493
sS'mcu'
p494
S'atmega328p'
p495
sS'f_cpu'
p496
S'16000000L'
p497
sS'core'
p498
S'arduino'
p499
ssS'name'
p500
S'Arduino Ethernet'
p501
saa(lp502
S'fio'
p503
a(dp504
S'bootloader'
p505
(dp506
S'extended_fuses'
p507
S'0x05'
p508
sS'high_fuses'
p509
S'0xDA'
p510
sS'low_fuses'
p511
S'0xFF'
p512
sS'lock_bits'
p513
S'0x0F'
p514
sS'file'
p515
S'ATmegaBOOT_168_atmega328_pro_8MHz.hex'
p516
sS'path'
p517
S'arduino:atmega'
p518
sS'unlock_bits'
p519
S'0x3F'
p520
ssS'upload'
p521
(dp522
S'protocol'
p523
S'arduino'
p524
sS'maximum_size'
p525
S'30720'
p526
sS'speed'
p527
S'57600'
p528
ssS'build'
p529
(dp530
S'core'
p531
S'arduino'
p532
sS'mcu'
p533
S'atmega328p'
p534
sS'f_cpu'
p535
S'8000000L'
p536
sS'variant'
p537
S'eightanaloginputs'
p538
ssS'name'
p539
S'Arduino Fio'
p540
saa(lp541
S'bt328'
p542
a(dp543
S'bootloader'
p544
(dp545
S'extended_fuses'
p546
S'0x05'
p547
sS'high_fuses'
p548
S'0xd8'
p549
sS'low_fuses'
p550
S'0xff'
p551
sS'lock_bits'
p552
S'0x0F'
p553
sS'file'
p554
S'ATmegaBOOT_168_atmega328_bt.hex'
p555
sS'path'
p556
S'bt'
p557
sS'unlock_bits'
p558
S'0x3F'
p559
ssS'upload'
p560
(dp561
S'protocol'
p562
S'arduino'
p563
sS'maximum_size'
p564
S'28672'
p565
sS'speed'
p566
S'19200'
p567
sS'disable_flushing'
p568
S'true'
p569
ssS'build'
p570
(dp571
S'core'
p572
S'arduino'
p573
sS'mcu'
p574
S'atmega328p'
p575
sS'f_cpu'
p576
S'16000000L'
p577
sS'variant'
p578
S'eightanaloginputs'
p579
ssS'name'
p580
S'Arduino BT w/ ATmega328'
p581
saa(lp582
S'bt'
p583
a(dp584
S'bootloader'
p585
(dp586
S'extended_fuses'
p587
S'0x00'
p588
sS'high_fuses'
p589
S'0xdd'
p590
sS'low_fuses'
p591
S'0xff'
p592
sS'lock_bits'
p593
S'0x0F'
p594
sS'file'
p595
S'ATmegaBOOT_168.hex'
p596
sS'path'
p597
S'bt'
p598
sS'unlock_bits'
p599
S'0x3F'
p600
ssS'upload'
p601
(dp602
S'protocol'
p603
S'arduino'
p604
sS'maximum_size'
p605
S'14336'
p606
sS'speed'
p607
S'19200'
p608
sS'disable_flushing'
p609
S'true'
p610
ssS'build'
p611
(dp612
S'core'
p613
S'arduino'
p614
sS'mcu'
p615
S'atmega168'
p616
sS'f_cpu'
p617
S'16000000L'
p618
sS'variant'
p619
S'eightanaloginputs'
p620
ssS'name'
p621
S'Arduino BT w/ ATmega168'
p622
saa(lp623
S'lilypad328'
p624
a(dp625
S'bootloader'
p626
(dp627
S'extended_fuses'
p628
S'0x05'
p629
sS'high_fuses'
p630
S'0xDA'
p631
sS'low_fuses'
p632
S'0xFF'
p633
sS'lock_bits'
p634
S'0x0F'
p635
sS'file'
p636
S'ATmegaBOOT_168_atmega328_pro_8MHz.hex'
p637
sS'path'
p638
S'atmega'
p639
sS'unlock_bits'
p640
S'0x3F'
p641
ssS'upload'
p642
(dp643
S'protocol'
p644
S'arduino'
p645
sS'maximum_size'
p646
S'30720'
p647
sS'speed'
p648
S'57600'
p649
ssS'build'
p650
(dp651
S'core'
p652
S'arduino'
p653
sS'mcu'
p654
S'atmega328p'
p655
sS'f_cpu'
p656
S'8000000L'
p657
sS'variant'
p658
S'standard'
p659
ssS'name'
p660
S'LilyPad Arduino w/ ATmega328'
p661
saa(lp662
S'lilypad'
p663
a(dp664
S'bootloader'
p665
(dp666
S'extended_fuses'
p667
S'0x00'
p668
sS'high_fuses'
p669
S'0xdd'
p670
sS'low_fuses'
p671
S'0xe2'
p672
sS'lock_bits'
p673
S'0x0F'
p674
sS'file'
p675
S'LilyPadBOOT_168.hex'
p676
sS'path'
p677
S'lilypad'
p678
sS'unlock_bits'
p679
S'0x3F'
p680
ssS'upload'
p681
(dp682
S'protocol'
p683
S'arduino'
p684
sS'maximum_size'
p685
S'14336'
p686
sS'speed'
p687
S'19200'
p688
ssS'build'
p689
(dp690
S'core'
p691
S'arduino'
p692
sS'mcu'
p693
S'atmega168'
p694
sS'f_cpu'
p695
S'8000000L'
p696
sS'variant'
p697
S'standard'
p698
ssS'name'
p699
S'LilyPad Arduino w/ ATmega168'
p700
saa(lp701
S'pro5v328'
p702
a(dp703
S'bootloader'
p704
(dp705
S'extended_fuses'
p706
S'0x05'
p707
sS'high_fuses'
p708
S'0xDA'
p709
sS'low_fuses'
p710
S'0xFF'
p711
sS'lock_bits'
p712
S'0x0F'
p713
sS'file'
p714
S'ATmegaBOOT_168_atmega328.hex'
p715
sS'path'
p716
S'atmega'
p717
sS'unlock_bits'
p718
S'0x3F'
p719
ssS'upload'
p720
(dp721
S'protocol'
p722
S'arduino'
p723
sS'maximum_size'
p724
S'30720'
p725
sS'speed'
p726
S'57600'
p727
ssS'build'
p728
(dp729
S'core'
p730
S'arduino'
p731
sS'mcu'
p732
S'atmega328p'
p733
sS'f_cpu'
p734
S'16000000L'
p735
sS'variant'
p736
S'standard'
p737
ssS'name'
p738
S'Arduino Pro or Pro Mini (5V, 16 MHz) w/ ATmega328'
p739
saa(lp740
S'pro5v'
p741
a(dp742
S'bootloader'
p743
(dp744
S'extended_fuses'
p745
S'0x00'
p746
sS'high_fuses'
p747
S'0xdd'
p748
sS'low_fuses'
p749
S'0xff'
p750
sS'lock_bits'
p751
S'0x0F'
p752
sS'file'
p753
S'ATmegaBOOT_168_diecimila.hex'
p754
sS'path'
p755
S'atmega'
p756
sS'unlock_bits'
p757
S'0x3F'
p758
ssS'upload'
p759
(dp760
S'protocol'
p761
S'arduino'
p762
sS'maximum_size'
p763
S'14336'
p764
sS'speed'
p765
S'19200'
p766
ssS'build'
p767
(dp768
S'core'
p769
S'arduino'
p770
sS'mcu'
p771
S'atmega168'
p772
sS'f_cpu'
p773
S'16000000L'
p774
sS'variant'
p775
S'standard'
p776
ssS'name'
p777
S'Arduino Pro or Pro Mini (5V, 16 MHz) w/ ATmega168'
p778
saa(lp779
S'pro328'
p780
a(dp781
S'bootloader'
p782
(dp783
S'extended_fuses'
p784
S'0x05'
p785
sS'high_fuses'
p786
S'0xDA'
p787
sS'low_fuses'
p788
S'0xFF'
p789
sS'lock_bits'
p790
S'0x0F'
p791
sS'file'
p792
S'ATmegaBOOT_168_atmega328_pro_8MHz.hex'
p793
sS'path'
p794
S'atmega'
p795
sS'unlock_bits'
p796
S'0x3F'
p797
ssS'upload'
p798
(dp799
S'protocol'
p800
S'arduino'
p801
sS'maximum_size'
p802
S'30720'
p803
sS'speed'
p804
S'57600'
p805
ssS'build'
p806
(dp807
S'core'
p808
S'arduino'
p809
sS'mcu'
p810
S'atmega328p'
p811
sS'f_cpu'
p812
S'8000000L'
p813
sS'variant'
p814
S'standard'
p815
ssS'name'
p816
S'Arduino Pro or Pro Mini (3.3V, 8 MHz) w/ ATmega328'
p817
saa(lp818
S'pro'
p819
a(dp820
S'bootloader'
p821
(dp822
S'extended_fuses'
p823
S'0x00'
p824
sS'high_fuses'
p825
S'0xdd'
p826
sS'low_fuses'
p827
S'0xc6'
p828
sS'lock_bits'
p829
S'0x0F'
p830
sS'file'
p831
S'ATmegaBOOT_168_pro_8MHz.hex'
p832
sS'path'
p833
S'atmega'
p834
sS'unlock_bits'
p835
S'0x3F'
p836
ssS'upload'
p837
(dp838
S'protocol'
p839
S'arduino'
p840
sS'maximum_size'
p841
S'14336'
p842
sS'speed'
p843
S'19200'
p844
ssS'build'
p845
(dp846
S'core'
p847
S'arduino'
p848
sS'mcu'
p849
S'atmega168'
p850
sS'f_cpu'
p851
S'8000000L'
p852
sS'variant'
p853
S'standard'
p854
ssS'name'
p855
S'Arduino Pro or Pro Mini (3.3V, 8 MHz) w/ ATmega168'
p856
saa(lp857
S'atmega168'
p858
a(dp859
S'bootloader'
p860
(dp861
S'extended_fuses'
p862
S'0x00'
p863
sS'high_fuses'
p864
S'0xdd'
p865
sS'low_fuses'
p866
S'0xff'
p867
sS'lock_bits'
p868
S'0x0F'
p869
sS'file'
p870
S'ATmegaBOOT_168_ng.hex'
p871
sS'path'
p872
S'atmega'
p873
sS'unlock_bits'
p874
S'0x3F'
p875
ssS'upload'
p876
(dp877
S'protocol'
p878
S'arduino'
p879
sS'maximum_size'
p880
S'14336'
p881
sS'speed'
p882
S'19200'
p883
ssS'build'
p884
(dp885
S'core'
p886
S'arduino'
p887
sS'mcu'
p888
S'atmega168'
p889
sS'f_cpu'
p890
S'16000000L'
p891
sS'variant'
p892
S'standard'
p893
ssS'name'
p894
S'Arduino NG or older w/ ATmega168'
p895
saa(lp896
S'atmega8'
p897
a(dp898
S'bootloader'
p899
(dp900
S'high_fuses'
p901
S'0xca'
p902
sS'low_fuses'
p903
S'0xdf'
p904
sS'lock_bits'
p905
S'0x0F'
p906
sS'file'
p907
S'ATmegaBOOT.hex'
p908
sS'path'
p909
S'atmega8'
p910
sS'unlock_bits'
p911
S'0x3F'
p912
ssS'upload'
p913
(dp914
S'protocol'
p915
S'arduino'
p916
sS'maximum_size'
p917
S'7168'
p918
sS'speed'
p919
S'19200'
p920
ssS'build'
p921
(dp922
S'core'
p923
S'arduino'
p924
sS'mcu'
p925
S'atmega8'
p926
sS'f_cpu'
p927
S'16000000L'
p928
sS'variant'
p929
S'standard'
p930
ssS'name'
p931
S'Arduino NG or older w/ ATmega8'
p932
saatp933
Rp934
(dp935
S'default'
p936
S'uno'
p937
sbtp938
a(S'used_libs'
p939
(lp940
S'lib/LiquidCrystal595'
p941
aS'/usr/share/arduino/libraries/Wire'
p942
aS'/usr/share/arduino/libraries/LiquidCrystal595'
p943
aS'/usr/share/arduino/hardware/arduino/cores/arduino'
p944
atp945
a(S'make'
p946
S'/usr/bin/make'
p947
tp948
a(S'arduino_libraries_dir'
p949
S'/usr/share/arduino/libraries'
p950
tp951
a(S'cc'
p952
S'/usr/bin/avr-gcc'
p953
tp954
a(S'cflags'
p955
g2
(g3
g4
(lp956
tp957
Rp958
tp959
a(S'cxxflags'
p960
g2
(g3
g4
(lp961
S'-fno-exceptions'
p962
atp963
Rp964
tp965
a(S'arduino_variants_dir'
p966
S'/usr/share/arduino/hardware/arduino/variants'
p967
tp968
a(S'stty'
p969
S'/bin/stty'
p970
tp971
a(S'version.txt'
p972
S'/usr/share/arduino/lib/version.txt'
p973
tp974
a(S'arduino_core_dir'
p975
g944
tp976
a(S'boards.txt'
p977
S'/usr/share/arduino/hardware/arduino/boards.txt'
p978
tp979
a(S'avrdude.conf'
p980
S'/usr/share/arduino/hardware/tools/avrdude.conf'
p981
tp982
a(S'deps'
p983
g2
(g3
g4
(lp984
S'.build/uno/src/dependencies.d'
p985
aS'.build/uno/arduino/dependencies.d'
p986
aS'.build/uno/LiquidCrystal595/dependencies.d'
p987
aS'.build/uno/Wire/dependencies.d'
p988
aS'.build/uno/LiquidCrystal595/dependencies.d'
p989
atp990
Rp991
tp992
a.